
StereoSystem.elf:     file format elf32-littlenios2
StereoSystem.elf
architecture: nios2, flags 0x00000112:
EXEC_P, HAS_SYMS, D_PAGED
start address 0x00800184

Program Header:
    LOAD off    0x00001000 vaddr 0x00800000 paddr 0x00800000 align 2**12
         filesz 0x00000020 memsz 0x00000020 flags r-x
    LOAD off    0x00001020 vaddr 0x00800020 paddr 0x00800020 align 2**12
         filesz 0x0003eea4 memsz 0x0003eea4 flags r-x
    LOAD off    0x0003fec4 vaddr 0x0083eec4 paddr 0x00840bc8 align 2**12
         filesz 0x00001d04 memsz 0x00001d04 flags rw-
    LOAD off    0x000428cc vaddr 0x008428cc paddr 0x008428cc align 2**12
         filesz 0x00000000 memsz 0x0000add8 flags rw-

Sections:
Idx Name          Size      VMA       LMA       File off  Algn
  0 .entry        00000020  00800000  00800000  00001000  2**5
                  CONTENTS, ALLOC, LOAD, READONLY, CODE
  1 .exceptions   00000164  00800020  00800020  00001020  2**2
                  CONTENTS, ALLOC, LOAD, READONLY, CODE
  2 .text         00032d0c  00800184  00800184  00001184  2**2
                  CONTENTS, ALLOC, LOAD, READONLY, CODE
  3 .rodata       0000c034  00832e90  00832e90  00033e90  2**2
                  CONTENTS, ALLOC, LOAD, READONLY, DATA
  4 .rwdata       00001d04  0083eec4  00840bc8  0003fec4  2**2
                  CONTENTS, ALLOC, LOAD, DATA, SMALL_DATA
  5 .bss          0000add8  008428cc  008428cc  000428cc  2**2
                  ALLOC, SMALL_DATA
  6 .comment      00000026  00000000  00000000  00041bc8  2**0
                  CONTENTS, READONLY
  7 .debug_aranges 00001838  00000000  00000000  00041bf0  2**3
                  CONTENTS, READONLY, DEBUGGING
  8 .debug_pubnames 00004a31  00000000  00000000  00043428  2**0
                  CONTENTS, READONLY, DEBUGGING
  9 .debug_info   0004c772  00000000  00000000  00047e59  2**0
                  CONTENTS, READONLY, DEBUGGING
 10 .debug_abbrev 000115da  00000000  00000000  000945cb  2**0
                  CONTENTS, READONLY, DEBUGGING
 11 .debug_line   0004257e  00000000  00000000  000a5ba5  2**0
                  CONTENTS, READONLY, DEBUGGING
 12 .debug_frame  00004d64  00000000  00000000  000e8124  2**2
                  CONTENTS, READONLY, DEBUGGING
 13 .debug_str    00008345  00000000  00000000  000ece88  2**0
                  CONTENTS, READONLY, DEBUGGING
 14 .debug_loc    000260fb  00000000  00000000  000f51cd  2**0
                  CONTENTS, READONLY, DEBUGGING
 15 .debug_alt_sim_info 00000030  00000000  00000000  0011b2c8  2**2
                  CONTENTS, READONLY, DEBUGGING
 16 .debug_ranges 000069b0  00000000  00000000  0011b2f8  2**3
                  CONTENTS, READONLY, DEBUGGING
 17 .thread_model 00000003  00000000  00000000  0012a18d  2**0
                  CONTENTS, READONLY
 18 .cpu          0000000f  00000000  00000000  0012a190  2**0
                  CONTENTS, READONLY
 19 .qsys         00000001  00000000  00000000  0012a19f  2**0
                  CONTENTS, READONLY
 20 .simulation_enabled 00000001  00000000  00000000  0012a1a0  2**0
                  CONTENTS, READONLY
 21 .stderr_dev   00000009  00000000  00000000  0012a1a1  2**0
                  CONTENTS, READONLY
 22 .stdin_dev    00000009  00000000  00000000  0012a1aa  2**0
                  CONTENTS, READONLY
 23 .stdout_dev   00000009  00000000  00000000  0012a1b3  2**0
                  CONTENTS, READONLY
 24 .sopc_system_name 0000000b  00000000  00000000  0012a1bc  2**0
                  CONTENTS, READONLY
 25 .quartus_project_dir 00000030  00000000  00000000  0012a1c7  2**0
                  CONTENTS, READONLY
 26 .jdi          00005a69  00000000  00000000  0012a1f7  2**0
                  CONTENTS, READONLY
 27 .sopcinfo     0009e453  00000000  00000000  0012fc60  2**0
                  CONTENTS, READONLY
SYMBOL TABLE:
00800000 l    d  .entry	00000000 .entry
00800020 l    d  .exceptions	00000000 .exceptions
00800184 l    d  .text	00000000 .text
00832e90 l    d  .rodata	00000000 .rodata
0083eec4 l    d  .rwdata	00000000 .rwdata
008428cc l    d  .bss	00000000 .bss
00000000 l    d  .comment	00000000 .comment
00000000 l    d  .debug_aranges	00000000 .debug_aranges
00000000 l    d  .debug_pubnames	00000000 .debug_pubnames
00000000 l    d  .debug_info	00000000 .debug_info
00000000 l    d  .debug_abbrev	00000000 .debug_abbrev
00000000 l    d  .debug_line	00000000 .debug_line
00000000 l    d  .debug_frame	00000000 .debug_frame
00000000 l    d  .debug_str	00000000 .debug_str
00000000 l    d  .debug_loc	00000000 .debug_loc
00000000 l    d  .debug_alt_sim_info	00000000 .debug_alt_sim_info
00000000 l    d  .debug_ranges	00000000 .debug_ranges
008001cc l       .text	00000000 alt_after_alt_main
00000000 l    df *ABS*	00000000 alt_irq_handler.c
00000000 l    df *ABS*	00000000 Button.c
00000000 l    df *ABS*	00000000 Colder.c
00000000 l    df *ABS*	00000000 Command.c
00000000 l    df *ABS*	00000000 CommandScheduler.c
00000000 l    df *ABS*	00000000 Cursor.c
00000000 l    df *ABS*	00000000 PhaseVocoder.c
00000000 l    df *ABS*	00000000 fft.c
00000000 l    df *ABS*	00000000 Database.c
00000000 l    df *ABS*	00000000 Frame.c
00000000 l    df *ABS*	00000000 Graphic.c
00000000 l    df *ABS*	00000000 ISR_vectors.c
00000000 l    df *ABS*	00000000 MemoryMgr.c
00000000 l    df *ABS*	00000000 Object.c
00000000 l    df *ABS*	00000000 Packet.c
00000000 l    df *ABS*	00000000 Playlist.c
00000000 l    df *ABS*	00000000 PushKeyController.c
00000000 l    df *ABS*	00000000 Queue.c
00000000 l    df *ABS*	00000000 RS232.c
00000000 l    df *ABS*	00000000 Range.c
00000000 l    df *ABS*	00000000 Song.c
00000000 l    df *ABS*	00000000 StereoSystem.c
00000000 l    df *ABS*	00000000 TestBot.c
00000000 l    df *ABS*	00000000 bit.c
00833c0a l     O .rodata	00000200 crc_table
00000000 l    df *ABS*	00000000 decoder.c
0080ea18 l     F .text	00000210 run_sync
0080ec28 l     F .text	00000060 error_default
00000000 l    df *ABS*	00000000 frame.c
0080ed50 l     F .text	000002d4 decode_header
00833e18 l     O .rodata	0000012c bitrate_table
00833f44 l     O .rodata	0000000c samplerate_table
00833e0c l     O .rodata	0000000c decoder_table
00000000 l    df *ABS*	00000000 huffman.c
00834050 l     O .rodata	00000038 hufftabA
00834088 l     O .rodata	00000020 hufftabB
00840b74 l     O .rwdata	00000002 hufftab0
008340a8 l     O .rodata	00000010 hufftab1
008340b8 l     O .rodata	00000020 hufftab2
008340d8 l     O .rodata	00000020 hufftab3
008340f8 l     O .rodata	00000034 hufftab5
0083412c l     O .rodata	00000038 hufftab6
00834164 l     O .rodata	00000080 hufftab7
008341e4 l     O .rodata	00000084 hufftab8
00834268 l     O .rodata	0000006c hufftab9
008342d4 l     O .rodata	000000cc hufftab10
008343a0 l     O .rodata	000000d0 hufftab11
00834470 l     O .rodata	000000c0 hufftab12
00834530 l     O .rodata	0000031c hufftab13
0083484c l     O .rodata	000002f8 hufftab15
00834b44 l     O .rodata	00000324 hufftab16
00834e68 l     O .rodata	00000304 hufftab24
00000000 l    df *ABS*	00000000 layer12.c
00835468 l     O .rodata	00000038 linear_table
00835368 l     O .rodata	00000100 sf_table
0083516c l     O .rodata	000000b4 sbquant_table
00835220 l     O .rodata	00000020 bitalloc_table
00835240 l     O .rodata	0000005a offset_table
0083529c l     O .rodata	000000cc qc_table
00000000 l    df *ABS*	00000000 layer3.c
0081067c l     F .text	00000634 III_imdct_s
0083d678 l     O .rodata	00000090 imdct_s
00810cb0 l     F .text	00000efc III_imdct_l
00811bac l     F .text	00002eb4 III_decode
008354a0 l     O .rodata	0000006c sfbwidth_table
0083550c l     O .rodata	00000048 nsfb_table
00835574 l     O .rodata	00000016 pretab
0083558c l     O .rodata	0000803c rq_table
0083d5c8 l     O .rodata	0000001c root_table
00835554 l     O .rodata	00000020 sflen_table
0083d5e4 l     O .rodata	00000078 is_lsf_table
0083d65c l     O .rodata	0000001c is_table
0083d708 l     O .rodata	00000016 sfb_48000_long
0083d71e l     O .rodata	00000027 sfb_48000_short
0083d745 l     O .rodata	00000026 sfb_48000_mixed
0083d76b l     O .rodata	00000016 sfb_44100_long
0083d781 l     O .rodata	00000027 sfb_44100_short
0083d7a8 l     O .rodata	00000026 sfb_44100_mixed
0083d7ce l     O .rodata	00000016 sfb_32000_long
0083d7e4 l     O .rodata	00000027 sfb_32000_short
0083d80b l     O .rodata	00000026 sfb_32000_mixed
0083d831 l     O .rodata	00000016 sfb_24000_long
0083d847 l     O .rodata	00000027 sfb_24000_short
0083d86e l     O .rodata	00000024 sfb_24000_mixed
0083d892 l     O .rodata	00000016 sfb_22050_long
0083d8a8 l     O .rodata	00000027 sfb_22050_short
0083d8cf l     O .rodata	00000024 sfb_22050_mixed
0083d8f3 l     O .rodata	00000027 sfb_16000_short
0083d91a l     O .rodata	00000024 sfb_16000_mixed
0083d93e l     O .rodata	00000016 sfb_8000_long
0083d954 l     O .rodata	00000027 sfb_8000_short
0083d97b l     O .rodata	00000027 sfb_8000_mixed
00000000 l    df *ABS*	00000000 stream.c
00000000 l    df *ABS*	00000000 synth.c
00815674 l     F .text	0000155c dct32
00816bd0 l     F .text	000006f4 synth_full
0083dbdc l     O .rodata	00000880 D
008172c4 l     F .text	00000720 synth_half
00000000 l    df *ABS*	00000000 timer.c
00817e14 l     F .text	00000198 scale_rational
00000000 l    df *ABS*	00000000 AudioDeviceController.c
00000000 l    df *ABS*	00000000 AudioFormat.c
00000000 l    df *ABS*	00000000 Sound.c
008197c0 l     F .text	000000a4 output
0081a114 l     F .text	00000078 error
0081a18c l     F .text	0000007c input
00000000 l    df *ABS*	00000000 SoundMixer.c
00000000 l    df *ABS*	00000000 s_cos.c
00000000 l    df *ABS*	00000000 s_sin.c
00000000 l    df *ABS*	00000000 w_atan2.c
00000000 l    df *ABS*	00000000 w_log.c
00000000 l    df *ABS*	00000000 w_sqrt.c
00000000 l    df *ABS*	00000000 e_atan2.c
00000000 l    df *ABS*	00000000 e_log.c
00000000 l    df *ABS*	00000000 e_rem_pio2.c
0083e750 l     O .rodata	00000108 two_over_pi
0083e6d0 l     O .rodata	00000080 npio2_hw
00000000 l    df *ABS*	00000000 e_sqrt.c
00000000 l    df *ABS*	00000000 k_cos.c
00000000 l    df *ABS*	00000000 k_rem_pio2.c
0083e858 l     O .rodata	00000010 init_jk
0083e868 l     O .rodata	00000040 PIo2
00000000 l    df *ABS*	00000000 k_sin.c
00000000 l    df *ABS*	00000000 s_atan.c
0083e8a8 l     O .rodata	00000020 atanhi
0083e8c8 l     O .rodata	00000020 atanlo
00000000 l    df *ABS*	00000000 s_fabs.c
00000000 l    df *ABS*	00000000 s_floor.c
00000000 l    df *ABS*	00000000 s_isnand.c
00000000 l    df *ABS*	00000000 s_lib_ver.c
00000000 l    df *ABS*	00000000 s_matherr.c
00000000 l    df *ABS*	00000000 s_nan.c
00000000 l    df *ABS*	00000000 s_scalbn.c
00000000 l    df *ABS*	00000000 s_copysign.c
00000000 l    df *ABS*	00000000 libgcc2.c
00000000 l    df *ABS*	00000000 fp-bit.c
0081f15c l     F .text	000001e4 _fpadd_parts
00000000 l    df *ABS*	00000000 fp-bit.c
00000000 l    df *ABS*	00000000 fp-bit.c
00000000 l    df *ABS*	00000000 fp-bit.c
00000000 l    df *ABS*	00000000 fp-bit.c
00000000 l    df *ABS*	00000000 fp-bit.c
00000000 l    df *ABS*	00000000 fp-bit.c
00000000 l    df *ABS*	00000000 fp-bit.c
00000000 l    df *ABS*	00000000 fp-bit.c
00000000 l    df *ABS*	00000000 fp-bit.c
00000000 l    df *ABS*	00000000 fp-bit.c
00000000 l    df *ABS*	00000000 dp-bit.c
0081fb10 l     F .text	00000410 _fpadd_parts
00000000 l    df *ABS*	00000000 dp-bit.c
00000000 l    df *ABS*	00000000 dp-bit.c
00000000 l    df *ABS*	00000000 dp-bit.c
00000000 l    df *ABS*	00000000 dp-bit.c
00000000 l    df *ABS*	00000000 dp-bit.c
00000000 l    df *ABS*	00000000 dp-bit.c
00000000 l    df *ABS*	00000000 dp-bit.c
00000000 l    df *ABS*	00000000 dp-bit.c
00000000 l    df *ABS*	00000000 dp-bit.c
00000000 l    df *ABS*	00000000 dp-bit.c
00000000 l    df *ABS*	00000000 dp-bit.c
00000000 l    df *ABS*	00000000 lib2-divmod.c
00820acc l     F .text	0000007c udivmodsi4
00000000 l    df *ABS*	00000000 lib2-divtable.c
00000000 l    df *ABS*	00000000 libgcc2.c
00000000 l    df *ABS*	00000000 libgcc2.c
00000000 l    df *ABS*	00000000 fp-bit.c
00000000 l    df *ABS*	00000000 fp-bit.c
00000000 l    df *ABS*	00000000 fp-bit.c
00000000 l    df *ABS*	00000000 fp-bit.c
00000000 l    df *ABS*	00000000 dp-bit.c
00000000 l    df *ABS*	00000000 dp-bit.c
00000000 l    df *ABS*	00000000 dp-bit.c
00000000 l    df *ABS*	00000000 libgcc2.c
00000000 l    df *ABS*	00000000 abort.c
00000000 l    df *ABS*	00000000 atoi.c
00000000 l    df *ABS*	00000000 calloc.c
00000000 l    df *ABS*	00000000 mallocr.c
00000000 l    df *ABS*	00000000 errno.c
00000000 l    df *ABS*	00000000 exit.c
00000000 l    df *ABS*	00000000 fprintf.c
00000000 l    df *ABS*	00000000 impure.c
0083efc4 l     O .rwdata	00000400 impure_data
00000000 l    df *ABS*	00000000 malloc.c
00000000 l    df *ABS*	00000000 mallocr.c
00000000 l    df *ABS*	00000000 memcpy.c
00000000 l    df *ABS*	00000000 memmove.c
00000000 l    df *ABS*	00000000 memset.c
00000000 l    df *ABS*	00000000 printf.c
00000000 l    df *ABS*	00000000 puts.c
00000000 l    df *ABS*	00000000 realloc.c
00000000 l    df *ABS*	00000000 mallocr.c
00000000 l    df *ABS*	00000000 sbrkr.c
00000000 l    df *ABS*	00000000 signal.c
00000000 l    df *ABS*	00000000 signalr.c
00000000 l    df *ABS*	00000000 sprintf.c
00000000 l    df *ABS*	00000000 strcat.c
00000000 l    df *ABS*	00000000 strcmp.c
00000000 l    df *ABS*	00000000 strcpy.c
00000000 l    df *ABS*	00000000 strlen.c
00000000 l    df *ABS*	00000000 strncat.c
00000000 l    df *ABS*	00000000 strncpy.c
00000000 l    df *ABS*	00000000 strstr.c
00822ff0 l     F .text	00000134 critical_factorization
00000000 l    df *ABS*	00000000 strtol.c
00000000 l    df *ABS*	00000000 vfprintf.c
008239ec l     F .text	00000058 __sprint_r
0083ea7a l     O .rodata	00000010 blanks.3452
0083ea6a l     O .rodata	00000010 zeroes.3453
00000000 l    df *ABS*	00000000 wsetup.c
00000000 l    df *ABS*	00000000 __call_atexit.c
00825a50 l     F .text	00000004 register_fini
00000000 l    df *ABS*	00000000 ctype_.c
0083eb8b l     O .rodata	00000180 _ctype_b
00000000 l    df *ABS*	00000000 dtoa.c
00825c04 l     F .text	00000218 quorem
00000000 l    df *ABS*	00000000 fflush.c
00000000 l    df *ABS*	00000000 findfp.c
00827600 l     F .text	00000058 std
0082770c l     F .text	00000008 __fp_lock
00827714 l     F .text	00000008 __fp_unlock
00000000 l    df *ABS*	00000000 mallocr.c
00000000 l    df *ABS*	00000000 fvwrite.c
00000000 l    df *ABS*	00000000 fwalk.c
00000000 l    df *ABS*	00000000 int_errno.c
00000000 l    df *ABS*	00000000 locale.c
00840b9c l     O .rwdata	00000004 charset
0083ed28 l     O .rodata	00000030 lconv
00000000 l    df *ABS*	00000000 makebuf.c
00000000 l    df *ABS*	00000000 memchr.c
00000000 l    df *ABS*	00000000 memcmp.c
00000000 l    df *ABS*	00000000 mprec.c
0083ee70 l     O .rodata	0000000c p05.2458
00000000 l    df *ABS*	00000000 s_isinfd.c
00000000 l    df *ABS*	00000000 stdio.c
00000000 l    df *ABS*	00000000 strchr.c
00000000 l    df *ABS*	00000000 writer.c
00000000 l    df *ABS*	00000000 closer.c
00000000 l    df *ABS*	00000000 fclose.c
00000000 l    df *ABS*	00000000 fstatr.c
00000000 l    df *ABS*	00000000 isattyr.c
00000000 l    df *ABS*	00000000 lseekr.c
00000000 l    df *ABS*	00000000 readr.c
00000000 l    df *ABS*	00000000 libgcc2.c
00000000 l    df *ABS*	00000000 libgcc2.c
00000000 l    df *ABS*	00000000 dp-bit.c
00000000 l    df *ABS*	00000000 dp-bit.c
00000000 l    df *ABS*	00000000 alt_alarm_start.c
00000000 l    df *ABS*	00000000 alt_close.c
00000000 l    df *ABS*	00000000 alt_dev.c
0082ac38 l     F .text	00000008 alt_dev_null_write
00000000 l    df *ABS*	00000000 alt_errno.c
00000000 l    df *ABS*	00000000 alt_exit.c
00000000 l    df *ABS*	00000000 alt_fstat.c
00000000 l    df *ABS*	00000000 alt_getpid.c
00000000 l    df *ABS*	00000000 alt_irq_register.c
00000000 l    df *ABS*	00000000 alt_irq_vars.c
00000000 l    df *ABS*	00000000 alt_isatty.c
00000000 l    df *ABS*	00000000 alt_kill.c
00000000 l    df *ABS*	00000000 alt_load.c
00000000 l    df *ABS*	00000000 alt_lseek.c
00000000 l    df *ABS*	00000000 alt_main.c
00000000 l    df *ABS*	00000000 alt_malloc_lock.c
00000000 l    df *ABS*	00000000 alt_read.c
00000000 l    df *ABS*	00000000 alt_release_fd.c
00000000 l    df *ABS*	00000000 alt_sbrk.c
00840bbc l     O .rwdata	00000004 heap_end
00000000 l    df *ABS*	00000000 alt_tick.c
00000000 l    df *ABS*	00000000 alt_write.c
00000000 l    df *ABS*	00000000 alt_sys_init.c
0083f980 l     O .rwdata	00001060 jtag_uart
008409e0 l     O .rwdata	00000030 audio_and_video_config_0
00840a10 l     O .rwdata	00000030 audio
00840a40 l     O .rwdata	00000038 ps2_0
00840aa4 l     O .rwdata	00000048 char_drawer
00840a78 l     O .rwdata	0000002c rs232_0
00840aec l     O .rwdata	00000054 pixel_buffer_dma_0
00840b40 l     O .rwdata	0000002c SD_Card
00000000 l    df *ABS*	00000000 altera_avalon_jtag_uart_fd.c
00000000 l    df *ABS*	00000000 altera_avalon_jtag_uart_init.c
0082b760 l     F .text	00000058 altera_avalon_jtag_uart_timeout
0082b830 l     F .text	00000108 altera_avalon_jtag_uart_irq
00000000 l    df *ABS*	00000000 altera_avalon_jtag_uart_ioctl.c
00000000 l    df *ABS*	00000000 altera_avalon_jtag_uart_read.c
00000000 l    df *ABS*	00000000 altera_avalon_jtag_uart_write.c
00000000 l    df *ABS*	00000000 altera_avalon_timer_sc.c
0082bce0 l     F .text	0000003c alt_avalon_timer_sc_irq
00000000 l    df *ABS*	00000000 altera_up_avalon_audio.c
00000000 l    df *ABS*	00000000 altera_up_avalon_audio_and_video_config.c
00000000 l    df *ABS*	00000000 altera_up_avalon_ps2.c
00000000 l    df *ABS*	00000000 altera_up_avalon_rs232.c
00000000 l    df *ABS*	00000000 altera_up_avalon_video_character_buffer_with_dma.c
00000000 l    df *ABS*	00000000 altera_up_avalon_video_pixel_buffer_dma.c
00000000 l    df *ABS*	00000000 altera_up_sd_card_avalon_interface.c
00000000 l    df *ABS*	00000000 alt_dcache_flush_all.c
00000000 l    df *ABS*	00000000 alt_dev_llist_insert.c
00000000 l    df *ABS*	00000000 alt_do_ctors.c
00000000 l    df *ABS*	00000000 alt_do_dtors.c
00000000 l    df *ABS*	00000000 alt_find_dev.c
00000000 l    df *ABS*	00000000 alt_icache_flush_all.c
00000000 l    df *ABS*	00000000 alt_io_redirect.c
00000000 l    df *ABS*	00000000 alt_open.c
00000000 l    df *ABS*	00000000 altera_nios2_qsys_irq.c
00000000 l    df *ABS*	00000000 alt_find_file.c
00000000 l    df *ABS*	00000000 alt_get_fd.c
00000000 l    df *ABS*	00000000 alt_icache_flush.c
00000000 l    df *ABS*	00000000 atexit.c
00000000 l    df *ABS*	00000000 __atexit.c
0080280c g     F .text	00000190 decode
0082c0b0 g     F .text	00000014 alt_up_av_config_reset
00842934 g     O .bss	00000004 aux_status_register
00828ad8 g     F .text	00000094 _mprec_log10
0082c34c g     F .text	0000005c alt_up_av_config_read_D5M_cfg_register
0080ec88 g     F .text	00000044 mad_header_init
00804678 g     F .text	00000034 initCmdScheduler
008004f4 g     F .text	00000070 drawRange
0081a244 g     F .text	00000024 getSoundPositionMS
00828bc4 g     F .text	00000088 __any_on
00829bac g     F .text	00000070 _isatty_r
0083ee48 g     O .rodata	00000028 __mprec_tinytens
0082c08c g     F .text	00000010 alt_up_av_config_disable_interrupt
0082b09c g     F .text	00000060 alt_main
00822d84 g     F .text	0000008c strcpy
0082ca50 g     F .text	00000178 alt_up_pixel_buffer_dma_draw_vline
00802128 g     F .text	000000d8 decodeString
008220e0 g     F .text	000000a0 _puts_r
008046bc g     F .text	00000010 getCursorY
0082c538 g     F .text	0000001c alt_up_ps2_disable_read_interrupt
0084d414 g     O .bss	00000100 alt_irq
008029bc g     F .text	00000004 moveSongToIndex
0081ec64 g     F .text	00000018 fabs
00829c1c g     F .text	00000078 _lseek_r
0080851c g     F .text	00000164 initSongInListPanel
00802df0 g     F .text	0000003c createPlaylist
00806d18 g     F .text	000003d0 getAndUpdateSongsFromTxt
0081b61c g     F .text	00000188 log
008197a4 g     F .text	0000001c checkEnd
0081b7a4 g     F .text	00000130 sqrt
00840bc8 g       *ABS*	00000000 __flash_rwdata_start
008048d4 g     F .text	0000001c moveCursor
00820630 g     F .text	00000088 __eqdf2
00802f18 g     F .text	000000b4 pause
0082f0a4 g     F .text	0000020c Check_for_Master_Boot_Record
00800ef4 g     F .text	000001dc highlightSongWithID
0081ac6c g     F .text	000001c8 loadToSoundBuffer
0080327c g     F .text	00000060 syncCreatePlaylist
0082be48 g     F .text	0000001c alt_up_audio_read_fifo_avail
0082c2b0 g     F .text	00000040 alt_up_av_config_write_audio_cfg_register
0084d6a4 g       *ABS*	00000000 __alt_heap_start
0080de78 g     F .text	0000003c initAudioBuffer
00819864 g     F .text	00000088 readFileTilOffset
0082e968 g     F .text	00000160 alt_up_sd_card_fclose
008018ac g     F .text	0000014c songButtonCollide
00822af0 g     F .text	00000074 _kill_r
008065b8 g     F .text	00000140 addExisitedListToDB
00802a00 g     F .text	00000094 removeSongFromList
00840b6c g     O .rwdata	00000008 mad_huff_quad_table
00822068 g     F .text	00000044 printf
008198ec g     F .text	00000074 initSound
0082bf74 g     F .text	0000005c alt_up_audio_record_r
00822a30 g     F .text	000000a0 _signal_r
00829708 g     F .text	00000068 __sseek
00827668 g     F .text	000000a4 __sinit
0080e290 g     F .text	00000024 mad_bit_length
0082c8c4 g     F .text	0000005c alt_up_char_buffer_string
0082c49c g     F .text	0000000c read_CE_bit
00802e2c g     F .text	00000050 setVolume
00828340 g     F .text	00000084 _setlocale_r
00827768 g     F .text	00000068 __sfmoreglue
00803ce0 g     F .text	00000134 syncCreateExisitedPlaylist
0080bf90 g     F .text	0000007c checkStartAck
008062ec g     F .text	000000f8 writeLine
0082b100 g     F .text	00000004 __malloc_unlock
00802c6c g     F .text	00000050 removeList
0082c4d0 g     F .text	0000003c alt_up_ps2_read_data_byte_timeout
0082c844 g     F .text	00000048 alt_up_rs232_read_fd
00809374 g     F .text	000000a8 drawEqulizer
00802b88 g     F .text	00000058 selectList
0080097c g     F .text	000000dc initSongButton
0081f5f4 g     F .text	00000174 __divsf3
00842958 g     O .bss	00000004 current_sector_modified
008428e4 g     O .bss	00000004 queue_lock
0082c920 g     F .text	00000058 alt_up_char_buffer_draw
0082be64 g     F .text	00000024 alt_up_audio_reset_audio_core
0082ebc4 g     F .text	00000088 Read_Sector_Data_Attempt_CRC
0080e944 g     F .text	0000004c mad_decoder_init
00809bf8 g     F .text	00000144 killImage
00821ef0 g     F .text	000000e0 memmove
008195cc g     F .text	0000001c getBitRateKbps
00827758 g     F .text	00000010 _cleanup
0081ae34 g     F .text	00000018 negativeToPositive
0080c32c g     F .text	00000234 actionBtnAnimation
00828c4c g     F .text	000000bc _Balloc
0080def0 g     F .text	0000007c loadSDCard
0081f968 g     F .text	00000094 __fixsfsi
008029c4 g     F .text	00000004 reverse
0082ddd4 g     F .text	0000006c alt_up_sd_card_is_Present
0082e94c g     F .text	0000001c Save_Modified_Sector
008195f8 g     F .text	0000001c getSampleSizeInBytes
0080f024 g     F .text	000004e8 mad_header_decode
0082d0d4 g     F .text	000000c0 alt_up_pixel_buffer_dma_draw
008206b8 g     F .text	00000088 __gtdf2
00808788 g     F .text	000000ec initScrollFrame
0080bb0c g     F .text	0000008c updateAcknowledge
00821640 g     F .text	00000010 __errno
00809d3c g     F .text	000000c8 drawVerticalLine
0082d1cc g     F .text	0000000c alt_up_pixel_buffer_dma_open_dev
008155bc g     F .text	000000b8 mad_synth_mute
0080941c g     F .text	000000f8 drawBox
00800000 g     F .entry	0000001c __reset
00842950 g     O .bss	00000004 fat_partition_size_in_512_byte_sectors
0080c828 g     F .text	0000005c initRange
0080316c g     F .text	00000088 syncRepeatList
008002b8 g     F .text	0000000c dummyCollide
008078a0 g     F .text	00000080 drawPlaylistPanel
00800020 g       *ABS*	00000000 __flash_exceptions_start
00829b38 g     F .text	00000074 _fstat_r
00801544 g     F .text	000000d0 pauseButtonCollide
00842904 g     O .bss	00000004 errno
00820a20 g     F .text	00000038 __make_dp
0081ec7c g     F .text	00000224 floor
00842988 g     O .bss	0000a470 db
0080ae64 g     F .text	00000074 initObject
0080a924 g     F .text	000002b0 mix_ISR
0080023c g     F .text	00000010 getYActionBtn
0082be88 g     F .text	00000014 alt_up_audio_write_interrupt_pending
0080e0e4 g     F .text	00000004 dBTester
0080c138 g     F .text	00000140 sendStats
00821000 g     F .text	0000002c __make_fp
008428dc g     O .bss	00000004 char_buffer
008019f8 g     F .text	00000458 playButtonCollide
0084291c g     O .bss	00000004 alt_argv
008029b8 g     F .text	00000004 updateSongToPlaylist
00800b48 g     F .text	000000d4 initVolumeButton
00848b6c g       *ABS*	00000000 _gp
00832450 g     F .text	000002e8 alt_up_sd_card_fopen
00806280 g     F .text	0000006c openFileFromSD
00809ed4 g     F .text	000001ec animate_ISR
0080d980 g     F .text	00000008 getLength
0081f340 g     F .text	00000070 __subsf3
008314a0 g     F .text	000000dc alt_up_sd_card_find_first
0080bd78 g     F .text	00000138 reset
00842944 g     O .bss	00000004 command_argument_register
0082d1a4 g     F .text	00000028 alt_up_pixel_buffer_dma_change_back_buffer_address
0082ace4 g     F .text	00000008 getpid
0080b4c8 g     F .text	00000018 isBitSet
0080dab4 g     F .text	00000074 setSongName
00819578 g     F .text	00000054 initAudioDeviceController
0080db28 g     F .text	0000007c unloadSong
00807b10 g     F .text	000000bc drawScrollFrame
0083f800 g     O .rwdata	00000180 alt_fd_list
00808874 g     F .text	000000c4 initMenuFrame
0081c41c g     F .text	00000828 __ieee754_rem_pio2
008428d8 g     O .bss	00000004 cursor_lock
008023fc g     F .text	00000260 encodeCmd
0082e640 g     F .text	000000e0 find_first_empty_record_in_root_directory
00832864 g     F .text	00000094 alt_find_dev
00821e50 g     F .text	000000a0 memcpy
0080f664 g     F .text	000000cc mad_frame_init
0082c978 g     F .text	00000024 alt_up_char_buffer_clear
0082774c g     F .text	0000000c _cleanup_r
00820850 g     F .text	000000f8 __floatsidf
00832904 g     F .text	00000104 alt_io_redirect
008207c8 g     F .text	00000088 __ltdf2
00807118 g     F .text	00000170 preloadSongsToPlaylist
00832e90 g       *ABS*	00000000 __DTOR_END__
00817bb0 g     F .text	00000028 mad_timer_compare
0082c7b0 g     F .text	00000028 alt_up_rs232_read_data
00822180 g     F .text	00000014 puts
0081979c g     F .text	00000008 stopSound
0081526c g     F .text	00000010 mad_stream_skip
008090ac g     F .text	0000024c initMainFrame
0082e720 g     F .text	000000f4 find_first_empty_cluster
00828a28 g     F .text	000000b0 __ratio
0082de40 g     F .text	0000006c alt_up_sd_card_open_dev
0081a558 g     F .text	00000290 loadMP3Sound
0082bd38 g     F .text	0000001c alt_up_audio_read_fifo_head
0082d194 g     F .text	00000010 alt_up_pixel_buffer_dma_check_swap_buffers_status
0082b9c0 g     F .text	0000016c altera_avalon_jtag_uart_read
008216fc g     F .text	00000014 malloc
008220ac g     F .text	00000034 _printf_r
00820c08 g     F .text	00000008 __udivsi3
0082adac g     F .text	00000084 isatty
0081b068 g     F .text	000002dc updateMixer
00822814 g     F .text	000000cc _raise_r
0083ed58 g     O .rodata	000000c8 __mprec_tens
00803e14 g     F .text	00000110 syncAddExisitedSongToList
0080b254 g     F .text	0000009c setHeader
0082cbc8 g     F .text	00000168 alt_up_pixel_buffer_dma_draw_hline
0082831c g     F .text	00000008 __locale_charset
0081cf0c g     F .text	0000052c __kernel_cos
00832ca0 g     F .text	00000038 alt_icache_flush
008428f8 g     O .bss	00000004 __malloc_top_pad
00800564 g     F .text	00000108 volumeButtonCollide
0080c278 g     F .text	000000b4 sendStartInit
00822aec g     F .text	00000004 _getpid_r
0082c154 g     F .text	00000044 alt_up_av_config_read_data
00840b98 g     O .rwdata	00000004 __mb_cur_max
00828324 g     F .text	0000000c _localeconv_r
00829344 g     F .text	0000003c __i2b
00827d00 g     F .text	0000049c __sfvwrite_r
00822968 g     F .text	000000b4 __sigtramp_r
0082deac g     F .text	00000080 get_dir_divider_location
00808de8 g     F .text	000002c4 drawAllSongsInList
008227a4 g     F .text	00000070 _sbrk_r
0084ce84 g     O .bss	00000010 up_dev
0082c9f8 g     F .text	00000058 helper_plot_pixel
0082e038 g     F .text	0000005c filename_to_upper_case
00802db4 g     F .text	0000003c createExisitedPlaylist
0080f50c g     F .text	00000124 mad_frame_decode
008033ec g     F .text	00000088 syncPause
0082dd5c g     F .text	00000038 alt_up_sd_card_set_attributes
0082e2b8 g     F .text	000001e0 Read_File_Record_At_Offset
00805f10 g     F .text	00000088 querySongByName
00829c94 g     F .text	00000078 _read_r
00806064 g     F .text	0000013c getSongsFromSD
008046ac g     F .text	00000010 getCursorX
0083f7cc g     O .rwdata	0000000c __lc_ctype
00840bb0 g     O .rwdata	00000004 alt_max_fd
0082c798 g     F .text	0000000c alt_up_rs232_check_parity
00809738 g     F .text	000000d0 draw_notransparent
0082bd1c g     F .text	0000001c alt_up_audio_write_fifo_head
00821340 g     F .text	00000138 __unpack_d
0082f8dc g     F .text	00000cfc find_file_in_directory
00829a14 g     F .text	00000110 _fclose_r
00800388 g     F .text	0000016c highlightButton
008007c4 g     F .text	000000cc animateButton
0082c4a8 g     F .text	00000008 read_num_bytes_available
008275cc g     F .text	00000034 fflush
008428fc g     O .bss	00000004 __malloc_max_sbrked_mem
0082acec g     F .text	000000c0 alt_irq_register
008428ec g     O .bss	00000008 tempBuffer
0082c488 g     F .text	0000000c read_RI_bit
0081e2b4 g     F .text	00000318 __kernel_sin
0081f9fc g     F .text	00000054 __extendsfdf2
00819a14 g     F .text	00000170 readInt
00818034 g     F .text	0000020c mad_timer_set
0080aed8 g     F .text	00000010 getBit
0082f3ec g     F .text	000000b0 alt_up_sd_card_is_FAT16
00802bfc g     F .text	00000020 openPlaylistsPanel
0081ffa0 g     F .text	00000074 __adddf3
00817ae8 g     F .text	000000c8 mad_synth_init
0081ae4c g     F .text	00000018 positiveToNegative
0080b230 g     F .text	00000024 setAck
0084cdf8 g     O .bss	00000070 com
00828908 g     F .text	00000120 __b2d
00802200 g     F .text	000001fc decodeCmd
0082d008 g     F .text	000000a8 alt_up_pixel_buffer_dma_clear_screen
0082a2e8 g     F .text	000005b0 __umoddi3
0082b000 g     F .text	0000009c lseek
00840b80 g     O .rwdata	00000004 __fdlib_version
0081a208 g     F .text	00000018 playSound
008195f0 g     F .text	00000008 getSampleSizeInBits
00840b88 g     O .rwdata	00000004 _global_impure_ptr
0080265c g     F .text	000001b0 encodeString
008048f0 g     F .text	00000040 enableCursorInterrupt
00830774 g     F .text	00000d2c get_home_directory_cluster_for_file
008221b0 g     F .text	000005f4 _realloc_r
0084d6a4 g       *ABS*	00000000 __bss_end
0082cdfc g     F .text	0000020c alt_up_pixel_buffer_dma_draw_box
0082b2cc g     F .text	000000e8 alt_tick
0081974c g     F .text	00000020 allowFade
0080024c g     F .text	0000006c querySongButtonFromID
0080baac g     F .text	00000060 sendRS232
00829d0c g     F .text	000005dc __udivdi3
008001d4 g     F .text	00000068 getXActionBtn
0081527c g     F .text	000001d8 mad_stream_errorstr
0080bb98 g     F .text	0000007c send
008196d0 g     F .text	00000020 convertToMS
00809e04 g     F .text	000000d0 drawHorizontalLine
0083ee20 g     O .rodata	00000028 __mprec_bigtens
008295a0 g     F .text	00000120 __s2b
00821540 g     F .text	00000018 abort
0080c00c g     F .text	0000012c sendAck
0082a920 g     F .text	00000194 __floatunsidf
0080af98 g     F .text	00000108 strnsep_
00828828 g     F .text	00000060 __mcmp
0084295c g     O .bss	00000004 current_sector_index
0080eccc g     F .text	00000084 mad_frame_mute
0082bf08 g     F .text	0000000c alt_up_audio_open_dev
0082c4bc g     F .text	00000008 read_data_byte
00840b94 g     O .rwdata	00000004 __ctype_ptr
00827734 g     F .text	00000018 __fp_lock_all
0080299c g     F .text	00000004 syncRemoveSongFromList
0084ce94 g     O .bss	00000018 alarm
00804034 g     F .text	000000cc syncDBFinish
0082bfd0 g     F .text	00000060 alt_up_audio_play_r
0082b298 g     F .text	00000034 alt_alarm_stop
008239c8 g     F .text	00000024 strtol
0082c494 g     F .text	00000008 read_RE_bit
0082e814 g     F .text	000000b0 mark_cluster
0080b66c g     F .text	00000028 initQueue
00842914 g     O .bss	00000004 alt_irq_active
008000ec g     F .exceptions	00000098 alt_irq_handler
0083f7d8 g     O .rwdata	00000028 alt_dev_null
00807838 g     F .text	00000004 killSongPanel
0081d438 g     F .text	00000e7c __kernel_rem_pio2
0082d944 g     F .text	000002e0 convert_filename_to_name_extension
00819774 g     F .text	00000010 setFadeOutLength
00820e90 g     F .text	000000c8 __unpack_f
0082c50c g     F .text	0000002c alt_up_ps2_write_data_byte
0080783c g     F .text	00000064 drawSongPanel
00832738 g     F .text	00000018 alt_dcache_flush_all
008286f4 g     F .text	00000070 __hi0bits
00842930 g     O .bss	00000004 is_sd_card_formated_as_FAT16
0082cd30 g     F .text	000000cc alt_up_pixel_buffer_dma_draw_rectangle
00821570 g     F .text	0000001c calloc
0081afd4 g     F .text	00000094 initSoundMixer
00820948 g     F .text	000000d8 __fixdfsi
00817cc4 g     F .text	00000150 mad_timer_multiply
00808c74 g     F .text	00000174 initPlaylistPanel
00831a00 g     F .text	0000032c find_first_empty_record_in_a_subdirectory
00808680 g     F .text	00000108 initVolumeFrame
00840bc8 g       *ABS*	00000000 __ram_rwdata_end
00819540 g     F .text	00000038 av_config_setup
008195e8 g     F .text	00000008 getSampleRate
00840ba8 g     O .rwdata	00000008 alt_dev_list
0080ba8c g     F .text	00000020 setStates
0082b3b4 g     F .text	00000118 write
00800a58 g     F .text	000000f0 initMenuButton
0081b8d4 g     F .text	00000350 __ieee754_atan2
00842954 g     O .bss	00000004 device_pointer
0082d1d8 g     F .text	0000029c alt_up_pixel_buffer_dma_draw_line
0081f7e0 g     F .text	00000078 __gtsf2
0080f630 g     F .text	00000034 mad_frame_finish
0080e0e0 g     F .text	00000004 graphicTester
0083eec4 g       *ABS*	00000000 __ram_rodata_end
0080e2b4 g     F .text	00000020 mad_bit_nextbyte
0081961c g     F .text	00000008 setSampleRate
0082ac54 g     F .text	00000090 fstat
008196c8 g     F .text	00000008 convertFromMS
00821688 g     F .text	0000002c fprintf
0082c88c g     F .text	00000038 alt_up_rs232_write_fd
0080deb4 g     F .text	0000003c initAnimate
00807da4 g     F .text	0000009c killSongInListPanel
0082ae30 g     F .text	0000011c kill
0080b620 g     F .text	0000004c containsValue
00822c38 g     F .text	00000090 strcat
00805d00 g     F .text	00000030 isCurrPlaying
00819790 g     F .text	0000000c seekSound
00829480 g     F .text	00000120 __pow5mult
00842908 g     O .bss	00000004 __nlocale_changed
00820c10 g     F .text	00000008 __umodsi3
00800e2c g     F .text	000000c8 initPlaylistButton
00840b78 g     O .rwdata	00000008 mad_timer_zero
0084d6a4 g       *ABS*	00000000 end
0082c628 g     F .text	00000048 alt_up_ps2_write_fd
00820d30 g     F .text	00000160 __pack_f
0082c9a8 g     F .text	00000050 alt_up_char_buffer_init
00802bf0 g     F .text	0000000c openSongsFromList
00821558 g     F .text	0000000c _atoi_r
008066f8 g     F .text	0000010c addListToDB
00801e50 g     F .text	000002d0 actionButtonCollide
008428cc g     O .bss	00000004 song_id_lock
0082b7b8 g     F .text	00000078 altera_avalon_jtag_uart_init
00806804 g     F .text	00000058 addSongToDB
00832e8c g       *ABS*	00000000 __CTOR_LIST__
01000000 g       *ABS*	00000000 __alt_stack_pointer
0082bcb0 g     F .text	00000030 alt_avalon_timer_sc_init
00820cb0 g     F .text	00000080 __clzsi2
0082bb2c g     F .text	00000184 altera_avalon_jtag_uart_write
0081b344 g     F .text	00000168 cos
00827658 g     F .text	00000004 __sfp_lock_acquire
0080e990 g     F .text	00000008 mad_decoder_finish
00828574 g     F .text	000000e4 memchr
00823a44 g     F .text	00001eac ___vfprintf_internal_r
00822bd8 g     F .text	00000060 _sprintf_r
008279ec g     F .text	00000314 _free_r
00804a68 g     F .text	000002a8 updateCursor
0080b84c g     F .text	0000012c dequeueValue
0080daac g     F .text	00000008 setSongVolume
00825a54 g     F .text	000001b0 __call_exitprocs
0084290c g     O .bss	00000004 __mlocale_changed
00840b90 g     O .rwdata	00000004 __malloc_sbrk_base
00800184 g     F .text	0000004c _start
00842924 g     O .bss	00000004 _alt_tick_rate
00823124 g     F .text	00000660 strstr
008033a0 g     F .text	0000004c syncStop
0081b4ac g     F .text	0000016c sin
0082bd54 g     F .text	0000006c alt_up_audio_write_fifo
00807e68 g     F .text	000001e4 drawSongInListPanel
00807508 g     F .text	000001e8 loadListsFromSD
00829010 g     F .text	0000014c __lshift
0082c100 g     F .text	00000020 alt_up_av_config_write_data
0081b618 g     F .text	00000004 atan2
00842928 g     O .bss	00000004 _alt_nticks
00822ad0 g     F .text	0000001c signal
00803a78 g     F .text	00000268 play
0082b104 g     F .text	0000011c read
0082b4ec g     F .text	000001f0 alt_sys_init
0081f8d0 g     F .text	00000098 __floatsisf
00806cf8 g     F .text	00000020 saveAllUpdatesToSDBeforeQuits
0082bdc0 g     F .text	0000006c alt_up_audio_read_fifo
00832cec g     F .text	00000134 __register_exitproc
0082c198 g     F .text	0000003c alt_up_av_config_write_LTM_cfg_register
008029c8 g     F .text	00000004 updateDBIndex
00800768 g     F .text	0000005c initButton
0082beb0 g     F .text	00000018 alt_up_audio_disable_write_interrupt
0080d978 g     F .text	00000008 setSongId
0082c56c g     F .text	00000014 alt_up_ps2_clear_fifo
0082c7d8 g     F .text	00000010 alt_up_rs232_get_available_space_in_write_FIFO
00803f24 g     F .text	00000110 syncAddSongToList
00807d0c g     F .text	00000098 drawMainFrame
0082915c g     F .text	000001e8 __multiply
0082b718 g     F .text	00000048 altera_avalon_jtag_uart_close
00800374 g     F .text	00000014 drawActionButton
008179e4 g     F .text	00000104 mad_synth_frame
0080a28c g     F .text	0000050c RS232_ISR
0083eec4 g       *ABS*	00000000 __ram_rwdata_start
00832e90 g       *ABS*	00000000 __ram_rodata_start
00822f34 g     F .text	000000bc strncpy
00842960 g     O .bss	00000028 __malloc_current_mallinfo
0081f768 g     F .text	00000078 __eqsf2
00828d08 g     F .text	0000017c __d2b
008029a0 g     F .text	00000018 repeatList
0084292c g     O .bss	00000004 initialized
008012ac g     F .text	000000e8 nextButtonCollide
00819624 g     F .text	000000a4 initAudioFormat
00822194 g     F .text	0000001c realloc
0082b708 g     F .text	00000010 altera_avalon_jtag_uart_read_fd
00832c40 g     F .text	00000060 alt_get_fd
0080ae50 g     F .text	00000014 setNextXY
0084ceac g     O .bss	00000014 search_data
00821478 g     F .text	000000c8 __fpcmp_parts_d
008032dc g     F .text	000000c4 syncSetVol
008076f0 g     F .text	00000148 initDatabase
008299a4 g     F .text	00000070 _close_r
0082bec8 g     F .text	00000014 alt_up_audio_enable_write_interrupt
00805d30 g     F .text	00000040 removeCurrPlaying
00819b84 g     F .text	000000c4 changeBitsPerSample
008030e4 g     F .text	00000088 syncRemoveList
00801614 g     F .text	00000298 playSongsFromSongPanel
00828658 g     F .text	00000074 memcmp
0084ce68 g     O .bss	0000001c memMgr
0082b6e8 g     F .text	00000010 altera_avalon_jtag_uart_close_fd
00815454 g     F .text	000000a8 mad_stream_sync
0084d6a4 g       *ABS*	00000000 __alt_stack_base
00808a54 g     F .text	00000220 initActionFrame
0082b6dc g     F .text	0000000c altera_avalon_jtag_uart_ioctl_fd
00807a88 g     F .text	00000088 drawVolumeFrame
0081aee0 g     F .text	00000018 clearIndexBuffer
0080d988 g     F .text	00000008 getSongPosition
008082dc g     F .text	00000240 drawAllSongs
008073fc g     F .text	0000010c updateSongToSD
00825914 g     F .text	0000013c __swsetup_r
00819784 g     F .text	0000000c setSoundVolume
008203d8 g     F .text	00000258 __divdf3
0082bedc g     F .text	00000018 alt_up_audio_disable_read_interrupt
008277d0 g     F .text	000000f0 __sfp
0084cec0 g     O .bss	00000054 boot_sector_data
00822e84 g     F .text	000000b0 strncat
00828b6c g     F .text	00000058 __copybits
0080adf8 g     F .text	0000002c initMemory
0083f3c4 g     O .rwdata	00000408 __malloc_av_
00827664 g     F .text	00000004 __sinit_lock_release
00820014 g     F .text	000003c4 __muldf3
008297ec g     F .text	00000060 __sread
0080ad10 g     F .text	000000e8 addToMemory
0083e8e8 g     O .rodata	00000010 __thenan_sf
0082c800 g     F .text	0000001c alt_up_rs232_disable_read_interrupt
00832b90 g     F .text	000000b0 alt_find_file
00832750 g     F .text	0000007c alt_dev_llist_insert
0082b0fc g     F .text	00000004 __malloc_lock
008216b4 g     F .text	00000034 _fprintf_r
0082b244 g     F .text	00000054 sbrk
00808938 g     F .text	0000011c initSongPanel
00805f98 g     F .text	000000cc queryListByName
008273d0 g     F .text	000001fc _fflush_r
0082158c g     F .text	000000b4 _calloc_r
0080e9a0 g     F .text	00000078 mad_decoder_run
0080da48 g     F .text	0000005c pauseSong
0083eec4 g     O .rwdata	00000100 __divsi3_table
008428cc g       *ABS*	00000000 __bss_start
0080aee8 g     F .text	00000018 setBit
00821fd0 g     F .text	00000098 memset
00817c40 g     F .text	00000084 mad_timer_add
008001d0 g     F .text	00000004 dummyDraw
0080df6c g     F .text	00000174 main
00804208 g     F .text	00000468 cmdProcessing
0082be2c g     F .text	0000001c alt_up_audio_write_fifo_space
00842920 g     O .bss	00000004 alt_envp
00842900 g     O .bss	00000004 __malloc_max_total_mem
0082d0b0 g     F .text	00000024 alt_up_pixel_buffer_dma_swap_buffers
00801480 g     F .text	000000c4 stopButtonCollide
0080e40c g     F .text	00000538 mad_bit_crc
0082c99c g     F .text	0000000c alt_up_char_buffer_open_dev
0082b6f8 g     F .text	00000010 altera_avalon_jtag_uart_write_fd
00819960 g     F .text	000000a8 allocateSoundBuffer
0080beb0 g     F .text	0000003c failReceive
0080393c g     F .text	0000013c syncUpdatePos
0080ae24 g     F .text	0000002c setXY
0082dd94 g     F .text	00000040 alt_up_sd_card_get_attributes
0080af00 g     F .text	00000098 initPacket
008036ac g     F .text	00000108 prev
00804670 g     F .text	00000008 addCmd
0082e498 g     F .text	000000ac Write_Sector_Data
008154fc g     F .text	00000024 mad_stream_buffer
0083157c g     F .text	00000484 alt_up_sd_card_write
008029cc g     F .text	00000010 play_playlist
00829700 g     F .text	00000008 __sclose
0081eed0 g     F .text	00000008 matherr
01000000 g       *ABS*	00000000 __alt_heap_limit
008428d0 g     O .bss	00000004 soundMixer
00829b24 g     F .text	00000014 fclose
0082c580 g     F .text	00000024 alt_up_ps2_read_data_byte
00823784 g     F .text	00000244 _strtol_r
00820a58 g     F .text	00000074 __truncdfsf2
0080beec g     F .text	000000a4 checkAck
00802a94 g     F .text	000000f4 addSongToList
00802d6c g     F .text	0000001c modifyListName
0084d514 g     O .bss	00000190 _atexit0
00825e1c g     F .text	000015b4 _dtoa_r
00821710 g     F .text	00000740 _malloc_r
0080e2d4 g     F .text	0000005c mad_bit_skip
00840bb4 g     O .rwdata	00000004 alt_errno
00814a60 g     F .text	0000080c mad_layer_III
0080b0a0 g     F .text	00000068 killPacket
00822958 g     F .text	00000010 _init_signal
008092f8 g     F .text	00000020 getColor
00802be0 g     F .text	00000010 seek
00828264 g     F .text	000000b8 _fwalk
0080dba4 g     F .text	00000074 loadSong
008196f0 g     F .text	0000005c getMaxSoundValue
00809358 g     F .text	0000001c setImagePos
0080e27c g     F .text	00000014 mad_bit_init
0082c4c4 g     F .text	0000000c alt_up_ps2_open_dev
0080daa4 g     F .text	00000008 setSongPitch
00820b48 g     F .text	00000060 __divsi3
0080b380 g     F .text	00000038 killPlaylist
0080c884 g     F .text	000010f4 checkButtonCollision
0083e8f8 g     O .rodata	00000014 __thenan_df
008278c0 g     F .text	0000012c _malloc_trim_r
0082c554 g     F .text	00000018 alt_up_ps2_enable_read_interrupt
0080b75c g     F .text	00000044 killQueueData
00832e90 g       *ABS*	00000000 __CTOR_END__
0081f414 g     F .text	000001e0 __mulsf3
00809514 g     F .text	000000b0 initImage
00842938 g     O .bss	00000004 status_register
00822cc8 g     F .text	000000bc strcmp
00842940 g     O .bss	00000004 command_register
0080abd4 g     F .text	0000013c freeMem
0081ae64 g     F .text	0000007c incIndex
00832e90 g       *ABS*	00000000 __flash_rodata_start
0080b5d4 g     F .text	0000004c wasKeyJustPressed
00832e90 g       *ABS*	00000000 __DTOR_LIST__
0082c7a4 g     F .text	0000000c alt_up_rs232_open_dev
00800c1c g     F .text	000000c4 initScrollButton
0081f0c8 g     F .text	00000024 copysign
00800354 g     F .text	00000020 drawTxtButton
0082a898 g     F .text	00000088 __nedf2
0082c120 g     F .text	00000034 alt_up_av_config_open_dev
0082b4cc g     F .text	00000020 alt_irq_init
008095c4 g     F .text	00000098 initVGA
0080a798 g     F .text	0000018c ps2_ISR
0082b220 g     F .text	00000024 alt_release_fd
0082e8c4 g     F .text	00000088 get_cluster_flag
0080b4e0 g     F .text	00000024 isKeyUp
008029ec g     F .text	00000014 playSongFromList
0081e5cc g     F .text	00000698 atan
0082c4b0 g     F .text	0000000c read_data_valid
00822b64 g     F .text	00000074 sprintf
0083e90c g     O .rodata	00000100 __clz_tab
0082e094 g     F .text	00000224 Write_File_Record_At_Offset
00842910 g     O .bss	00000004 _PathLocale
008428e0 g     O .bss	00000004 pixel_buffer
00802c3c g     F .text	00000030 playSongFromAllSongs
0082c670 g     F .text	00000060 alt_up_ps2_write_data_byte_with_ack
00832cd8 g     F .text	00000014 atexit
0081f858 g     F .text	00000078 __gesf2
0082992c g     F .text	00000078 _write_r
00815588 g     F .text	00000034 mad_stream_finish
0082c0c4 g     F .text	00000014 alt_up_av_config_read_ready
008002c4 g     F .text	00000090 updateVolumeValue
008283c4 g     F .text	0000001c setlocale
008194f4 g     F .text	00000010 disableAudioDeviceController
0082ec4c g     F .text	00000458 Check_for_DOS_FAT
00819f78 g     F .text	0000013c loadSoundBuffer
00831d2c g     F .text	00000724 create_file
00840b84 g     O .rwdata	00000004 _impure_ptr
0084293c g     O .bss	00000004 CSD_register_w0
00842918 g     O .bss	00000004 alt_argc
00802cbc g     F .text	000000b0 killCmd
0081eee8 g     F .text	000001e0 scalbn
00832818 g     F .text	0000004c _do_dtors
0081bc24 g     F .text	000007f8 __ieee754_log
00833f50 g     O .rodata	00000100 mad_huff_pair_table
00803564 g     F .text	00000148 next
0080e0e8 g     F .text	00000074 soundTester
00807288 g     F .text	00000174 saveListsToSD
00800020 g       .exceptions	00000000 alt_irq_entry
00804d10 g     F .text	00000bf4 pitchShift
00828888 g     F .text	00000080 __ulp
008296c0 g     F .text	00000040 __isinfd
0082771c g     F .text	00000018 __fp_unlock_all
0080dc18 g     F .text	000000b4 initSong
008428e8 g     O .bss	00000004 mouse
00809808 g     F .text	000003f0 loadSDImage
00817bd8 g     F .text	00000034 mad_timer_negate
0080b978 g     F .text	000000fc addPacketsLengthToQueue
00807bcc g     F .text	0000008c drawActionFrame
00805904 g     F .text	000003fc fft
00840ba0 g     O .rwdata	00000008 alt_fs_list
0082df2c g     F .text	0000010c check_file_name_for_FAT16_compliance
00819504 g     F .text	0000003c enableAudioDeviceController
00842948 g     O .bss	00000004 buffer_memory
00802fcc g     F .text	00000118 initCmd
0082c81c g     F .text	00000018 alt_up_rs232_enable_read_interrupt
0082bf14 g     F .text	00000060 alt_up_audio_record_l
00801394 g     F .text	000000ec prevButtonCollide
00817c0c g     F .text	00000034 mad_timer_abs
00815520 g     F .text	00000068 mad_stream_init
0082c7e8 g     F .text	00000018 alt_up_rs232_write_data
0080b694 g     F .text	000000c8 enqueue
0081eed8 g     F .text	00000010 nan
00818b68 g     F .text	0000098c mad_timer_string
0080b42c g     F .text	0000009c initPlaylist
00800ce0 g     F .text	0000014c initActionButton
00800020 g       *ABS*	00000000 __ram_exceptions_start
0081aa8c g     F .text	00000154 loadWavSound
0081aef8 g     F .text	00000090 setGlobalVolume
00828330 g     F .text	00000010 localeconv
0080bc14 g     F .text	00000164 initRS232
008428d4 g     O .bss	00000004 SDIO_lock
008037b4 g     F .text	000000c4 syncNext
0080e998 g     F .text	00000008 mad_decoder_message
0081cc44 g     F .text	000002c8 __ieee754_sqrt
0082c09c g     F .text	00000014 alt_up_av_config_enable_interrupt
0080b108 g     F .text	00000128 readPacketHeader
0080e15c g     F .text	00000090 cmdTester
0081abe0 g     F .text	0000008c loadSound
00809330 g     F .text	00000028 addImage
0084294c g     O .bss	00000004 fat_partition_offset_in_512_byte_sectors
0080b7a0 g     F .text	000000ac dequeue
0080b3b8 g     F .text	00000074 setListName
0082c0d8 g     F .text	00000028 alt_up_av_config_read_acknowledge
0082c210 g     F .text	00000040 alt_up_av_config_write_DC2_cfg_register
00803474 g     F .text	000000f0 syncPlay
00840bc8 g       *ABS*	00000000 _edata
00800890 g     F .text	000000ec menuButtonCollide
0084d6a4 g       *ABS*	00000000 _end
0084cf14 g     O .bss	00000500 active_files
00819614 g     F .text	00000008 getNumChannels
00800184 g       *ABS*	00000000 __ram_exceptions_end
0082dc24 g     F .text	00000138 copy_file_record_name_to_string
0082b938 g     F .text	00000088 altera_avalon_jtag_uart_ioctl
0081a220 g     F .text	00000024 getSoundLengthMS
0080a0c0 g     F .text	0000009c audio_ISR
008428f4 g     O .bss	00000004 MIX_LOCK
0082f2b0 g     F .text	0000013c Look_for_FAT16
0082c030 g     F .text	0000005c alt_up_audio_play_l
0081a0b4 g     F .text	00000060 setSoundPlaybackSpeed
00829770 g     F .text	0000007c __swrite
008006c4 g     F .text	00000058 playlistMenuButtonCollide
0080b504 g     F .text	00000028 isKeyDown
008046cc g     F .text	00000208 memOverlap
008029c0 g     F .text	00000004 repeatCurrentSong
00840b8c g     O .rwdata	00000004 __malloc_trim_threshold
00832b88 g     F .text	00000008 altera_nios2_qsys_irq_init
00821650 g     F .text	00000038 exit
0082f49c g     F .text	00000440 alt_up_sd_card_find_next
0082819c g     F .text	000000c8 _fwalk_reent
0081fa50 g     F .text	000000c0 __floatunsisf
0082c6d0 g     F .text	000000c8 alt_up_ps2_init
00828e84 g     F .text	0000018c __mdiff
0082c2f0 g     F .text	0000005c alt_up_av_config_read_LTM_cfg_register
008010d0 g     F .text	000001dc playlistButtonCollide
00820ba8 g     F .text	00000060 __modsi3
0080c6cc g     F .text	0000015c checkTxtCollisionForMouse
00804930 g     F .text	00000138 initCursor
00802120 g     F .text	00000008 decodePlaylist
00804100 g     F .text	00000108 syncCreateSong
00817fac g     F .text	00000088 mad_timer_fraction
0082e544 g     F .text	000000fc Read_Sector_Data
01000000 g       *ABS*	00000000 __alt_data_end
00800020 g     F .exceptions	00000000 alt_exception
0082765c g     F .text	00000004 __sfp_lock_release
00800000 g       *ABS*	00000000 __alt_mem_sdram
0080071c g     F .text	0000004c killSongButton
00821564 g     F .text	0000000c atoi
008031f4 g     F .text	00000088 syncSelectList
00819c48 g     F .text	00000330 resampleSound
0083ea8a g     O .rodata	00000101 _ctype_
0080d990 g     F .text	00000008 seekSong
008063e4 g     F .text	000000fc readLine
0080685c g     F .text	00000184 update
0080d998 g     F .text	000000b0 stopSong
0080804c g     F .text	00000290 drawAllLists
0080965c g     F .text	000000dc draw
0080066c g     F .text	00000058 allSongsMenuButtonCollide
0081f0ec g     F .text	00000070 __fixunssfsi
00820f58 g     F .text	000000a8 __fpcmp_parts_f
0082ac40 g     F .text	00000014 _exit
0081eea0 g     F .text	00000030 __isnand
0082aab4 g     F .text	00000094 alt_alarm_start
00820c18 g     F .text	00000098 __muldi3
0082eac8 g     F .text	000000fc Read_Sector_Data_CRC
008305d8 g     F .text	0000019c alt_up_sd_card_read
008283e0 g     F .text	00000194 __smakebuf_r
0080b52c g     F .text	00000060 initPushKeyController
0080c560 g     F .text	0000016c checkImgCollisionForMouse
0082c5e8 g     F .text	00000040 alt_up_ps2_wait_for_ack
00819a08 g     F .text	0000000c clearSoundBuffer
00822e10 g     F .text	00000074 strlen
008228f4 g     F .text	00000064 _init_signal_r
00832a08 g     F .text	00000180 open
00805d70 g     F .text	000001a0 initializeListWithSongs
0080e330 g     F .text	000000dc mad_bit_read
00820740 g     F .text	00000088 __gedf2
008070e8 g     F .text	00000030 loadSongsFromSD
0080dccc g     F .text	000001ac playSong
0080fbe4 g     F .text	00000a98 mad_layer_II
00802e7c g     F .text	0000009c stop
0082c408 g     F .text	00000080 alt_up_av_config_read_video_cfg_register
00803878 g     F .text	000000c4 syncPrev
0081a7e8 g     F .text	000002a4 loadWavHeader
008328f8 g     F .text	0000000c alt_icache_flush_all
0082984c g     F .text	000000e0 strchr
00840bb8 g     O .rwdata	00000004 alt_priority_mask
008064e0 g     F .text	000000d8 removeListFromDB
00807920 g     F .text	00000168 clearSongPanel
00807c58 g     F .text	000000b4 drawMenuFrame
008258f0 g     F .text	00000024 __vfprintf_internal
0082c1d4 g     F .text	0000003c alt_up_av_config_write_D5M_cfg_register
0080b2f8 g     F .text	00000088 generateListNameForSD
0080f730 g     F .text	000004b4 mad_layer_I
0082c5a4 g     F .text	00000044 alt_up_ps2_read_fd
008069e0 g     F .text	00000318 saveListChangesToSD
0081ff20 g     F .text	00000080 __subdf3
008029dc g     F .text	00000010 shuffle
00802c1c g     F .text	00000020 openAllSongPanel
00807e40 g     F .text	00000028 initFrame
00828764 g     F .text	000000c4 __lo0bits
0080ba74 g     F .text	00000018 switchAck
00840bc0 g     O .rwdata	00000008 alt_alarm_list
008327cc g     F .text	0000004c _do_ctors
00822a1c g     F .text	00000014 __sigtramp
0082c834 g     F .text	00000010 alt_up_rs232_get_used_space_in_read_FIFO
0082ab48 g     F .text	000000f0 close
0081f3b0 g     F .text	00000064 __addsf3
0081af88 g     F .text	0000004c clearSoundMixer
0080b2f0 g     F .text	00000008 setListId
0082af4c g     F .text	000000b4 alt_load
0082bef4 g     F .text	00000014 alt_up_audio_enable_read_interrupt
0081976c g     F .text	00000008 setFadeInLength
0082c250 g     F .text	00000060 alt_up_av_config_write_video_cfg_register
00802d88 g     F .text	0000002c createSong
0082102c g     F .text	00000314 __pack_d
008061a0 g     F .text	000000e0 createPlaylistFromTxt
0080b58c g     F .text	00000048 wasKeyJustReleased
0080a15c g     F .text	00000130 push_key_ISR
00818240 g     F .text	00000928 mad_timer_count
0082d474 g     F .text	000004d0 match_file_record_to_name_ext
0080e1ec g     F .text	00000090 dbTester2
00809318 g     F .text	00000018 getColor555
008228e0 g     F .text	00000014 raise
008216e8 g     F .text	00000014 free
00827660 g     F .text	00000004 __sinit_lock_acquire
00829380 g     F .text	00000100 __multadd
008286cc g     F .text	00000028 _Bfree
0082c3a8 g     F .text	00000060 alt_up_av_config_read_DC2_cfg_register
0082be9c g     F .text	00000014 alt_up_audio_read_interrupt_pending
0081a268 g     F .text	000002f0 setSoundPitch



Disassembly of section .entry:

00800000 <__reset>:
#if NIOS2_ICACHE_SIZE > 0 && defined(ALT_ALLOW_CODE_AT_RESET) && !defined(ALT_SIM_OPTIMIZE)
    /* Assume the instruction cache size is always a power of two. */
#if NIOS2_ICACHE_SIZE > 0x8000
    movhi r2, %hi(NIOS2_ICACHE_SIZE)
#else
    movui r2, NIOS2_ICACHE_SIZE
  800000:	00880014 	movui	r2,8192
#endif

0:
    initi r2
  800004:	1001483a 	initi	r2
    addi r2, r2, -NIOS2_ICACHE_LINE_SIZE
  800008:	10bff804 	addi	r2,r2,-32
    bgt r2, zero, 0b
  80000c:	00bffd16 	blt	zero,r2,800004 <__reset+0x4>
 * Jump to the _start entry point in the .text section if reset code
 * is allowed or if optimizing for RTL simulation.
 */
#if defined(ALT_ALLOW_CODE_AT_RESET) || defined(ALT_SIM_OPTIMIZE)
    /* Jump to the _start entry point in the .text section. */
    movhi r1, %hi(_start)
  800010:	00402034 	movhi	at,128
    ori r1, r1, %lo(_start)
  800014:	08406114 	ori	at,at,388
    jmp r1
  800018:	0800683a 	jmp	at
  80001c:	00000000 	call	0 <__reset-0x800000>

Disassembly of section .exceptions:

00800020 <alt_exception>:
         * Process an exception.  For all exceptions we must preserve all
         * caller saved registers on the stack (See the Nios2 ABI
         * documentation for details).
         */

        addi  sp, sp, -76
  800020:	deffed04 	addi	sp,sp,-76

#endif

#endif

        stw   ra,  0(sp)
  800024:	dfc00015 	stw	ra,0(sp)
        /*
         * Leave a gap in the stack frame at 4(sp) for the muldiv handler to
         * store zero into.
         */

        stw   r1,   8(sp)
  800028:	d8400215 	stw	at,8(sp)
        stw   r2,  12(sp)
  80002c:	d8800315 	stw	r2,12(sp)
        stw   r3,  16(sp)
  800030:	d8c00415 	stw	r3,16(sp)
        stw   r4,  20(sp)
  800034:	d9000515 	stw	r4,20(sp)
        stw   r5,  24(sp)
  800038:	d9400615 	stw	r5,24(sp)
        stw   r6,  28(sp)
  80003c:	d9800715 	stw	r6,28(sp)
        stw   r7,  32(sp)
  800040:	d9c00815 	stw	r7,32(sp)

        rdctl r5, estatus
  800044:	000b307a 	rdctl	r5,estatus

        stw   r8,  36(sp)
  800048:	da000915 	stw	r8,36(sp)
        stw   r9,  40(sp)
  80004c:	da400a15 	stw	r9,40(sp)
        stw   r10, 44(sp)
  800050:	da800b15 	stw	r10,44(sp)
        stw   r11, 48(sp)
  800054:	dac00c15 	stw	r11,48(sp)
        stw   r12, 52(sp)
  800058:	db000d15 	stw	r12,52(sp)
        stw   r13, 56(sp)
  80005c:	db400e15 	stw	r13,56(sp)
        stw   r14, 60(sp)
  800060:	db800f15 	stw	r14,60(sp)
        stw   r15, 64(sp)
  800064:	dbc01015 	stw	r15,64(sp)
        /*
         * ea-4 contains the address of the instruction being executed
         * when the exception occured. For interrupt exceptions, we will
         * will be re-issue the isntruction. Store it in 72(sp)
         */
        stw   r5,  68(sp)  /* estatus */
  800068:	d9401115 	stw	r5,68(sp)
        addi  r15, ea, -4  /* instruction that caused exception */
  80006c:	ebffff04 	addi	r15,ea,-4
        stw   r15,  72(sp)
  800070:	dbc01215 	stw	r15,72(sp)
#else
        /*
         * Test to see if the exception was a software exception or caused 
         * by an external interrupt, and vector accordingly.
         */
        rdctl r4, ipending
  800074:	0009313a 	rdctl	r4,ipending
        andi  r2, r5, 1
  800078:	2880004c 	andi	r2,r5,1
        beq   r2, zero, .Lnot_irq
  80007c:	10000326 	beq	r2,zero,80008c <alt_exception+0x6c>
        beq   r4, zero, .Lnot_irq
  800080:	20000226 	beq	r4,zero,80008c <alt_exception+0x6c>
        /*
         * Now that all necessary registers have been preserved, call 
         * alt_irq_handler() to process the interrupts.
         */

        call alt_irq_handler
  800084:	08000ec0 	call	8000ec <alt_irq_handler>

        .section .exceptions.irqreturn, "xa"

        br    .Lexception_exit
  800088:	00000306 	br	800098 <alt_exception+0x78>
         * upon completion, so we write ea (address of instruction *after*
         * the one where the exception occured) into 72(sp). The actual
         * instruction that caused the exception is written in r2, which these
         * handlers will utilize.
         */
        stw   ea,  72(sp)  /* Don't re-issue */
  80008c:	df401215 	stw	ea,72(sp)
        ldw   r2, -4(ea)   /* Instruction that caused exception */
  800090:	e8bfff17 	ldw	r2,-4(ea)
#ifdef NIOS2_HAS_DEBUG_STUB
       /*
        *  Either tell the user now (if there is a debugger attached) or go into
        *  the debug monitor which will loop until a debugger is attached.
        */
        break
  800094:	003da03a 	break	0
        /* 
         * Restore the saved registers, so that all general purpose registers 
         * have been restored to their state at the time the interrupt occured.
         */

        ldw   r5,  68(sp)
  800098:	d9401117 	ldw	r5,68(sp)
        ldw   ea,  72(sp)  /* This becomes the PC once eret is executed */
  80009c:	df401217 	ldw	ea,72(sp)
        ldw   ra,   0(sp)
  8000a0:	dfc00017 	ldw	ra,0(sp)

        wrctl estatus, r5
  8000a4:	2801707a 	wrctl	estatus,r5

        ldw   r1,   8(sp)
  8000a8:	d8400217 	ldw	at,8(sp)
        ldw   r2,  12(sp)
  8000ac:	d8800317 	ldw	r2,12(sp)
        ldw   r3,  16(sp)
  8000b0:	d8c00417 	ldw	r3,16(sp)
        ldw   r4,  20(sp)
  8000b4:	d9000517 	ldw	r4,20(sp)
        ldw   r5,  24(sp)
  8000b8:	d9400617 	ldw	r5,24(sp)
        ldw   r6,  28(sp)
  8000bc:	d9800717 	ldw	r6,28(sp)
        ldw   r7,  32(sp)
  8000c0:	d9c00817 	ldw	r7,32(sp)
#ifdef ALT_STACK_CHECK
        ldw   et, %gprel(alt_exception_old_stack_limit)(gp)
#endif
#endif

        ldw   r8,  36(sp)
  8000c4:	da000917 	ldw	r8,36(sp)
        ldw   r9,  40(sp)
  8000c8:	da400a17 	ldw	r9,40(sp)
        ldw   r10, 44(sp)
  8000cc:	da800b17 	ldw	r10,44(sp)
        ldw   r11, 48(sp)
  8000d0:	dac00c17 	ldw	r11,48(sp)
        ldw   r12, 52(sp)
  8000d4:	db000d17 	ldw	r12,52(sp)
        ldw   r13, 56(sp)
  8000d8:	db400e17 	ldw	r13,56(sp)
        ldw   r14, 60(sp)
  8000dc:	db800f17 	ldw	r14,60(sp)
        ldw   r15, 64(sp)
  8000e0:	dbc01017 	ldw	r15,64(sp)
#endif

        ldw   sp,  76(sp)

#else
        addi  sp, sp, 76
  8000e4:	dec01304 	addi	sp,sp,76

        /*
         * Return to the interrupted instruction.
         */

        eret
  8000e8:	ef80083a 	eret

008000ec <alt_irq_handler>:
 * instruction is present if the macro ALT_CI_INTERRUPT_VECTOR defined.
 */

void alt_irq_handler (void) __attribute__ ((section (".exceptions")));
void alt_irq_handler (void)
{
  8000ec:	defffe04 	addi	sp,sp,-8
  8000f0:	dfc00115 	stw	ra,4(sp)
  8000f4:	dc000015 	stw	r16,0(sp)
#ifndef NIOS2_EIC_PRESENT
static ALT_INLINE alt_u32 ALT_ALWAYS_INLINE alt_irq_pending (void)
{
  alt_u32 active;

  NIOS2_READ_IPENDING (active);
  8000f8:	0009313a 	rdctl	r4,ipending
     * called to clear the interrupt condition.
     */

    do
    {
      if (active & mask)
  8000fc:	2080004c 	andi	r2,r4,1
  800100:	1005003a 	cmpeq	r2,r2,zero
  800104:	04002174 	movhi	r16,133
  800108:	84350504 	addi	r16,r16,-11244
  80010c:	10001126 	beq	r2,zero,800154 <alt_irq_handler+0x68>
  800110:	00c00044 	movi	r3,1
  800114:	000b883a 	mov	r5,zero
#else
        alt_irq[i].handler(alt_irq[i].context, i); 
#endif
        break;
      }
      mask <<= 1;
  800118:	18c7883a 	add	r3,r3,r3
     * called to clear the interrupt condition.
     */

    do
    {
      if (active & mask)
  80011c:	20c4703a 	and	r2,r4,r3
        alt_irq[i].handler(alt_irq[i].context, i); 
#endif
        break;
      }
      mask <<= 1;
      i++;
  800120:	29400044 	addi	r5,r5,1
     * called to clear the interrupt condition.
     */

    do
    {
      if (active & mask)
  800124:	103ffc26 	beq	r2,zero,800118 <alt_irq_handler+0x2c>
      { 
#ifdef ALT_ENHANCED_INTERRUPT_API_PRESENT
        alt_irq[i].handler(alt_irq[i].context); 
#else
        alt_irq[i].handler(alt_irq[i].context, i); 
  800128:	280490fa 	slli	r2,r5,3
  80012c:	1405883a 	add	r2,r2,r16
  800130:	11000117 	ldw	r4,4(r2)
  800134:	10c00017 	ldw	r3,0(r2)
  800138:	183ee83a 	callr	r3
  80013c:	0005313a 	rdctl	r2,ipending

    } while (1);

    active = alt_irq_pending ();
    
  } while (active);
  800140:	10000c26 	beq	r2,zero,800174 <alt_irq_handler+0x88>
  800144:	1009883a 	mov	r4,r2
     * called to clear the interrupt condition.
     */

    do
    {
      if (active & mask)
  800148:	2080004c 	andi	r2,r4,1
  80014c:	1005003a 	cmpeq	r2,r2,zero
  800150:	103fef1e 	bne	r2,zero,800110 <alt_irq_handler+0x24>
  800154:	000b883a 	mov	r5,zero
      { 
#ifdef ALT_ENHANCED_INTERRUPT_API_PRESENT
        alt_irq[i].handler(alt_irq[i].context); 
#else
        alt_irq[i].handler(alt_irq[i].context, i); 
  800158:	280490fa 	slli	r2,r5,3
  80015c:	1405883a 	add	r2,r2,r16
  800160:	11000117 	ldw	r4,4(r2)
  800164:	10c00017 	ldw	r3,0(r2)
  800168:	183ee83a 	callr	r3
  80016c:	0005313a 	rdctl	r2,ipending

    } while (1);

    active = alt_irq_pending ();
    
  } while (active);
  800170:	103ff41e 	bne	r2,zero,800144 <alt_irq_handler+0x58>
  /*
   * Notify the operating system that interrupt processing is complete.
   */ 

  ALT_OS_INT_EXIT();
}
  800174:	dfc00117 	ldw	ra,4(sp)
  800178:	dc000017 	ldw	r16,0(sp)
  80017c:	dec00204 	addi	sp,sp,8
  800180:	f800283a 	ret

Disassembly of section .text:

00800184 <_start>:

    /* Assume the data cache size is always a power of two. */
#if NIOS2_DCACHE_SIZE > 0x8000
    movhi r2, %hi(NIOS2_DCACHE_SIZE)
#else
    movui r2, NIOS2_DCACHE_SIZE
  800184:	00900014 	movui	r2,16384
#endif

0:
    initd 0(r2)
  800188:	10000033 	initd	0(r2)
    addi r2, r2, -NIOS2_DCACHE_LINE_SIZE
  80018c:	10bff804 	addi	r2,r2,-32
    bgt r2, zero, 0b
  800190:	00bffd16 	blt	zero,r2,800188 <_start+0x4>
#if (NIOS2_NUM_OF_SHADOW_REG_SETS == 0)    
    /*
     * Now that the caches are initialized, set up the stack pointer.
     * The value provided by the linker is assumed to be correctly aligned.
     */
    movhi sp, %hi(__alt_stack_pointer)
  800194:	06c04034 	movhi	sp,256
    ori sp, sp, %lo(__alt_stack_pointer)
  800198:	dec00014 	ori	sp,sp,0

    /* Set up the global pointer. */
    movhi gp, %hi(_gp)
  80019c:	06802134 	movhi	gp,132
    ori gp, gp, %lo(_gp)
  8001a0:	d6a2db14 	ori	gp,gp,35692
 */
#ifndef ALT_SIM_OPTIMIZE
    /* Log that the BSS is about to be cleared. */
    ALT_LOG_PUTS(alt_log_msg_bss)

    movhi r2, %hi(__bss_start)
  8001a4:	00802134 	movhi	r2,132
    ori r2, r2, %lo(__bss_start)
  8001a8:	108a3314 	ori	r2,r2,10444

    movhi r3, %hi(__bss_end)
  8001ac:	00c02134 	movhi	r3,132
    ori r3, r3, %lo(__bss_end)
  8001b0:	18f5a914 	ori	r3,r3,54948

    beq r2, r3, 1f
  8001b4:	10c00326 	beq	r2,r3,8001c4 <_start+0x40>

0:
    stw zero, (r2)
  8001b8:	10000015 	stw	zero,0(r2)
    addi r2, r2, 4
  8001bc:	10800104 	addi	r2,r2,4
    bltu r2, r3, 0b
  8001c0:	10fffd36 	bltu	r2,r3,8001b8 <_start+0x34>
     * section aren't defined until alt_load() has been called).
     */
    mov   et, zero
#endif

    call alt_load
  8001c4:	082af4c0 	call	82af4c <alt_load>

    /* Log that alt_main is about to be called. */
    ALT_LOG_PUTS(alt_log_msg_alt_main)

    /* Call the C entry point. It should never return. */
    call alt_main
  8001c8:	082b09c0 	call	82b09c <alt_main>

008001cc <alt_after_alt_main>:

    /* Wait in infinite loop in case alt_main does return. */
alt_after_alt_main:
    br alt_after_alt_main
  8001cc:	003fff06 	br	8001cc <alt_after_alt_main>

008001d0 <dummyDraw>:
	alt_up_char_buffer_string(char_buffer, this->name, this->x_pos, this->y_pos);
}
void drawActionButton(struct Button* this){
	draw(this->x_pos, this->y_pos, this->stats[0]);
}
void dummyDraw(struct Button* this){}
  8001d0:	f800283a 	ret

008001d4 <getXActionBtn>:
	this->Panel->elements[0]->drawFrame(this->Panel->elements[0]);
}

int getXActionBtn(int actionBtnType){
	int x = 0;
	switch(actionBtnType){
  8001d4:	00800104 	movi	r2,4
  8001d8:	11000c36 	bltu	r2,r4,80020c <getXActionBtn+0x38>
  8001dc:	2105883a 	add	r2,r4,r4
  8001e0:	1085883a 	add	r2,r2,r2
  8001e4:	00c02034 	movhi	r3,128
  8001e8:	18c07e04 	addi	r3,r3,504
  8001ec:	10c5883a 	add	r2,r2,r3
  8001f0:	11000017 	ldw	r4,0(r2)
  8001f4:	2000683a 	jmp	r4
  8001f8:	00800214 	movui	r2,8
  8001fc:	00800234 	movhi	r2,8
  800200:	0080022c 	andhi	r2,zero,8
  800204:	00800224 	muli	r2,zero,8
  800208:	0080021c 	xori	r2,zero,8
  80020c:	0005883a 	mov	r2,zero
  800210:	f800283a 	ret
  800214:	00802444 	movi	r2,145
  800218:	f800283a 	ret
  80021c:	00803344 	movi	r2,205
  800220:	f800283a 	ret
	case 1:
		x = 120;
		break;
	case 2:
		x = 180;
		break;
  800224:	008017c4 	movi	r2,95
		break;
	default:
		break;
	}
	return x;
}
  800228:	f800283a 	ret
	case 0:
		x = 145;
		break;
	case 1:
		x = 120;
		break;
  80022c:	00802d04 	movi	r2,180
  800230:	f800283a 	ret
int getXActionBtn(int actionBtnType){
	int x = 0;
	switch(actionBtnType){
	case 0:
		x = 145;
		break;
  800234:	00801e04 	movi	r2,120
  800238:	f800283a 	ret

0080023c <getYActionBtn>:
	return x;
}

int getYActionBtn(int actionBtnType){
	int y = 0;
	switch(actionBtnType){
  80023c:	00803204 	movi	r2,200
  800240:	20000126 	beq	r4,zero,800248 <getYActionBtn+0xc>
  800244:	00803344 	movi	r2,205
	default:
		y = 205;
		break;
	}
	return y;
}
  800248:	f800283a 	ret

0080024c <querySongButtonFromID>:

struct Button* querySongButtonFromID(int song_id){
	int i = 1;
	// don't do anything since up and down is not
	// implemented yet
	if (song_id > 14){
  80024c:	00800384 	movi	r2,14
		printf("Query returns NULL song ID > 14\n");
	}
	updateVolumeValue(song_id);
}

struct Button* querySongButtonFromID(int song_id){
  800250:	200d883a 	mov	r6,r4
	int i = 1;
	// don't do anything since up and down is not
	// implemented yet
	if (song_id > 14){
  800254:	1100030e 	bge	r2,r4,800264 <querySongButtonFromID+0x18>
		return NULL;
	}
	for (i = 1; i < mouse->frame->elements[2]->button_size; i++){
  800258:	0007883a 	mov	r3,zero
		if (mouse->frame->elements[2]->buttons[i]->id == song_id){
			return mouse->frame->elements[2]->buttons[i];
		}
	}
	return NULL;
}
  80025c:	1805883a 	mov	r2,r3
  800260:	f800283a 	ret
	// don't do anything since up and down is not
	// implemented yet
	if (song_id > 14){
		return NULL;
	}
	for (i = 1; i < mouse->frame->elements[2]->button_size; i++){
  800264:	00802134 	movhi	r2,132
  800268:	108a3a04 	addi	r2,r2,10472
  80026c:	11000017 	ldw	r4,0(r2)
  800270:	01400044 	movi	r5,1
  800274:	20800317 	ldw	r2,12(r4)
  800278:	10c00017 	ldw	r3,0(r2)
  80027c:	18800217 	ldw	r2,8(r3)
  800280:	11c00317 	ldw	r7,12(r2)
  800284:	29fff40e 	bge	r5,r7,800258 <querySongButtonFromID+0xc>
		if (mouse->frame->elements[2]->buttons[i]->id == song_id){
  800288:	11000117 	ldw	r4,4(r2)
  80028c:	20c00117 	ldw	r3,4(r4)
  800290:	18800317 	ldw	r2,12(r3)
  800294:	3080051e 	bne	r6,r2,8002ac <querySongButtonFromID+0x60>
  800298:	003ff006 	br	80025c <querySongButtonFromID+0x10>
  80029c:	20c00217 	ldw	r3,8(r4)
  8002a0:	21000104 	addi	r4,r4,4
  8002a4:	18800317 	ldw	r2,12(r3)
  8002a8:	30bfec26 	beq	r6,r2,80025c <querySongButtonFromID+0x10>
	// don't do anything since up and down is not
	// implemented yet
	if (song_id > 14){
		return NULL;
	}
	for (i = 1; i < mouse->frame->elements[2]->button_size; i++){
  8002ac:	29400044 	addi	r5,r5,1
  8002b0:	29fffa1e 	bne	r5,r7,80029c <querySongButtonFromID+0x50>
  8002b4:	003fe806 	br	800258 <querySongButtonFromID+0xc>

008002b8 <dummyCollide>:
	//highlightButton(this->Panel->mainFrame->elements[2]->buttons[db.curr_song_id+1]);
	printf("Next button is clicked.\n");
}

void dummyCollide(struct Button* this){
	printf("ERROR:Dummy Collide is called.\n");
  8002b8:	010020f4 	movhi	r4,131
  8002bc:	210ba404 	addi	r4,r4,11920
  8002c0:	08221801 	jmpi	822180 <puts>

008002c4 <updateVolumeValue>:

void animateButton(struct Button* this, int stats_index){
	draw(getXActionBtn(this->type), getYActionBtn(this->type), this->stats[stats_index]);
}

void updateVolumeValue(int song_id){
  8002c4:	defffd04 	addi	sp,sp,-12
  8002c8:	2005883a 	mov	r2,r4
  8002cc:	dc000115 	stw	r16,4(sp)
  8002d0:	dfc00215 	stw	ra,8(sp)
	char temp[4];
	if (song_id == 0){
		song_id = 1;
	}
	memset(temp, 0 , sizeof(temp)/sizeof(temp[0]));
	sprintf(temp, "%d", db.songs[song_id]->volume);
  8002d4:	014020f4 	movhi	r5,131
  8002d8:	294bac04 	addi	r5,r5,11952
	alt_up_char_buffer_string(char_buffer, "                    ", 7, 54);
  8002dc:	04002134 	movhi	r16,132
  8002e0:	840a3704 	addi	r16,r16,10460
	char temp[4];
	if (song_id == 0){
		song_id = 1;
	}
	memset(temp, 0 , sizeof(temp)/sizeof(temp[0]));
	sprintf(temp, "%d", db.songs[song_id]->volume);
  8002e4:	d809883a 	mov	r4,sp
	draw(getXActionBtn(this->type), getYActionBtn(this->type), this->stats[stats_index]);
}

void updateVolumeValue(int song_id){
	char temp[4];
	if (song_id == 0){
  8002e8:	10001826 	beq	r2,zero,80034c <updateVolumeValue+0x88>
		song_id = 1;
	}
	memset(temp, 0 , sizeof(temp)/sizeof(temp[0]));
	sprintf(temp, "%d", db.songs[song_id]->volume);
  8002ec:	1085883a 	add	r2,r2,r2
  8002f0:	00c02134 	movhi	r3,132
  8002f4:	18ca6204 	addi	r3,r3,10632
  8002f8:	1085883a 	add	r2,r2,r2
  8002fc:	10c5883a 	add	r2,r2,r3
  800300:	11c03617 	ldw	r7,216(r2)
void updateVolumeValue(int song_id){
	char temp[4];
	if (song_id == 0){
		song_id = 1;
	}
	memset(temp, 0 , sizeof(temp)/sizeof(temp[0]));
  800304:	d8000015 	stw	zero,0(sp)
	sprintf(temp, "%d", db.songs[song_id]->volume);
  800308:	39800717 	ldw	r6,28(r7)
  80030c:	0822b640 	call	822b64 <sprintf>
	alt_up_char_buffer_string(char_buffer, "                    ", 7, 54);
  800310:	81000017 	ldw	r4,0(r16)
  800314:	014020f4 	movhi	r5,131
  800318:	294bad04 	addi	r5,r5,11956
  80031c:	018001c4 	movi	r6,7
  800320:	01c00d84 	movi	r7,54
  800324:	082c8c40 	call	82c8c4 <alt_up_char_buffer_string>
	alt_up_char_buffer_string(char_buffer, temp, 8, 54);
  800328:	81000017 	ldw	r4,0(r16)
  80032c:	d80b883a 	mov	r5,sp
  800330:	01800204 	movi	r6,8
  800334:	01c00d84 	movi	r7,54
  800338:	082c8c40 	call	82c8c4 <alt_up_char_buffer_string>
}
  80033c:	dfc00217 	ldw	ra,8(sp)
  800340:	dc000117 	ldw	r16,4(sp)
  800344:	dec00304 	addi	sp,sp,12
  800348:	f800283a 	ret
	draw(getXActionBtn(this->type), getYActionBtn(this->type), this->stats[stats_index]);
}

void updateVolumeValue(int song_id){
	char temp[4];
	if (song_id == 0){
  80034c:	00800044 	movi	r2,1
  800350:	003fe606 	br	8002ec <updateVolumeValue+0x28>

00800354 <drawTxtButton>:
	vb->draw = drawActionButton;
	vb->collide = volumeButtonCollide;
	return vb;
}

void drawTxtButton(struct Button* this){
  800354:	200d883a 	mov	r6,r4
	alt_up_char_buffer_string(char_buffer, this->name, this->x_pos, this->y_pos);
  800358:	00802134 	movhi	r2,132
  80035c:	108a3704 	addi	r2,r2,10460
  800360:	31c00817 	ldw	r7,32(r6)
  800364:	31400b17 	ldw	r5,44(r6)
  800368:	11000017 	ldw	r4,0(r2)
  80036c:	31800717 	ldw	r6,28(r6)
  800370:	082c8c41 	jmpi	82c8c4 <alt_up_char_buffer_string>

00800374 <drawActionButton>:
}
void drawActionButton(struct Button* this){
  800374:	2007883a 	mov	r3,r4
	draw(this->x_pos, this->y_pos, this->stats[0]);
  800378:	21800c17 	ldw	r6,48(r4)
  80037c:	19400817 	ldw	r5,32(r3)
  800380:	21000717 	ldw	r4,28(r4)
  800384:	080965c1 	jmpi	80965c <draw>

00800388 <highlightButton>:
	}

}

void highlightButton(struct Button* this){
	draw_notransparent(241, 13, this->Panel->bg_image);
  800388:	20800117 	ldw	r2,4(r4)
		updateVolumeValue(this->id);
	}

}

void highlightButton(struct Button* this){
  80038c:	defff904 	addi	sp,sp,-28
  800390:	dcc00315 	stw	r19,12(sp)
	draw_notransparent(241, 13, this->Panel->bg_image);
  800394:	11800617 	ldw	r6,24(r2)
		updateVolumeValue(this->id);
	}

}

void highlightButton(struct Button* this){
  800398:	2027883a 	mov	r19,r4
	draw_notransparent(241, 13, this->Panel->bg_image);
  80039c:	01400344 	movi	r5,13
  8003a0:	01003c44 	movi	r4,241
		updateVolumeValue(this->id);
	}

}

void highlightButton(struct Button* this){
  8003a4:	dfc00615 	stw	ra,24(sp)
  8003a8:	ddc00515 	stw	r23,20(sp)
  8003ac:	dd400415 	stw	r21,16(sp)
  8003b0:	dc800215 	stw	r18,8(sp)
  8003b4:	dc400115 	stw	r17,4(sp)
  8003b8:	dc000015 	stw	r16,0(sp)
	draw_notransparent(241, 13, this->Panel->bg_image);
  8003bc:	08097380 	call	809738 <draw_notransparent>
	int i = 0;
	int y = 4* this->y_pos - 2;
	int x = 4* this->x_pos - 3;
  8003c0:	9c400717 	ldw	r17,28(r19)
}

void highlightButton(struct Button* this){
	draw_notransparent(241, 13, this->Panel->bg_image);
	int i = 0;
	int y = 4* this->y_pos - 2;
  8003c4:	99400817 	ldw	r5,32(r19)
	int x = 4* this->x_pos - 3;
	for (i = 0; i < 10; i++, y++){
		drawHorizontalLine(x, y, 76, 0xe711ce);
  8003c8:	05401304 	movi	r21,76

void highlightButton(struct Button* this){
	draw_notransparent(241, 13, this->Panel->bg_image);
	int i = 0;
	int y = 4* this->y_pos - 2;
	int x = 4* this->x_pos - 3;
  8003cc:	8c63883a 	add	r17,r17,r17
}

void highlightButton(struct Button* this){
	draw_notransparent(241, 13, this->Panel->bg_image);
	int i = 0;
	int y = 4* this->y_pos - 2;
  8003d0:	294b883a 	add	r5,r5,r5
  8003d4:	294b883a 	add	r5,r5,r5
	int x = 4* this->x_pos - 3;
  8003d8:	8c63883a 	add	r17,r17,r17
	for (i = 0; i < 10; i++, y++){
		drawHorizontalLine(x, y, 76, 0xe711ce);
  8003dc:	05c039f4 	movhi	r23,231
  8003e0:	bdc47384 	addi	r23,r23,4558

void highlightButton(struct Button* this){
	draw_notransparent(241, 13, this->Panel->bg_image);
	int i = 0;
	int y = 4* this->y_pos - 2;
	int x = 4* this->x_pos - 3;
  8003e4:	8c7fff44 	addi	r17,r17,-3
	for (i = 0; i < 10; i++, y++){
  8003e8:	04c00044 	movi	r19,1
}

void highlightButton(struct Button* this){
	draw_notransparent(241, 13, this->Panel->bg_image);
	int i = 0;
	int y = 4* this->y_pos - 2;
  8003ec:	297fff84 	addi	r5,r5,-2
	int x = 4* this->x_pos - 3;
	for (i = 0; i < 10; i++, y++){
  8003f0:	2ce1883a 	add	r16,r5,r19
		drawHorizontalLine(x, y, 76, 0xe711ce);
  8003f4:	8809883a 	mov	r4,r17
  8003f8:	a80d883a 	mov	r6,r21
  8003fc:	b80f883a 	mov	r7,r23
  800400:	0809e040 	call	809e04 <drawHorizontalLine>
void highlightButton(struct Button* this){
	draw_notransparent(241, 13, this->Panel->bg_image);
	int i = 0;
	int y = 4* this->y_pos - 2;
	int x = 4* this->x_pos - 3;
	for (i = 0; i < 10; i++, y++){
  800404:	84e5883a 	add	r18,r16,r19
		drawHorizontalLine(x, y, 76, 0xe711ce);
  800408:	8809883a 	mov	r4,r17
  80040c:	800b883a 	mov	r5,r16
  800410:	a80d883a 	mov	r6,r21
  800414:	b80f883a 	mov	r7,r23
  800418:	0809e040 	call	809e04 <drawHorizontalLine>
void highlightButton(struct Button* this){
	draw_notransparent(241, 13, this->Panel->bg_image);
	int i = 0;
	int y = 4* this->y_pos - 2;
	int x = 4* this->x_pos - 3;
	for (i = 0; i < 10; i++, y++){
  80041c:	94e1883a 	add	r16,r18,r19
		drawHorizontalLine(x, y, 76, 0xe711ce);
  800420:	8809883a 	mov	r4,r17
  800424:	900b883a 	mov	r5,r18
  800428:	a80d883a 	mov	r6,r21
  80042c:	b80f883a 	mov	r7,r23
  800430:	0809e040 	call	809e04 <drawHorizontalLine>
void highlightButton(struct Button* this){
	draw_notransparent(241, 13, this->Panel->bg_image);
	int i = 0;
	int y = 4* this->y_pos - 2;
	int x = 4* this->x_pos - 3;
	for (i = 0; i < 10; i++, y++){
  800434:	84e5883a 	add	r18,r16,r19
		drawHorizontalLine(x, y, 76, 0xe711ce);
  800438:	8809883a 	mov	r4,r17
  80043c:	800b883a 	mov	r5,r16
  800440:	a80d883a 	mov	r6,r21
  800444:	b80f883a 	mov	r7,r23
  800448:	0809e040 	call	809e04 <drawHorizontalLine>
void highlightButton(struct Button* this){
	draw_notransparent(241, 13, this->Panel->bg_image);
	int i = 0;
	int y = 4* this->y_pos - 2;
	int x = 4* this->x_pos - 3;
	for (i = 0; i < 10; i++, y++){
  80044c:	94e1883a 	add	r16,r18,r19
		drawHorizontalLine(x, y, 76, 0xe711ce);
  800450:	8809883a 	mov	r4,r17
  800454:	900b883a 	mov	r5,r18
  800458:	a80d883a 	mov	r6,r21
  80045c:	b80f883a 	mov	r7,r23
  800460:	0809e040 	call	809e04 <drawHorizontalLine>
void highlightButton(struct Button* this){
	draw_notransparent(241, 13, this->Panel->bg_image);
	int i = 0;
	int y = 4* this->y_pos - 2;
	int x = 4* this->x_pos - 3;
	for (i = 0; i < 10; i++, y++){
  800464:	84e5883a 	add	r18,r16,r19
		drawHorizontalLine(x, y, 76, 0xe711ce);
  800468:	8809883a 	mov	r4,r17
  80046c:	800b883a 	mov	r5,r16
  800470:	a80d883a 	mov	r6,r21
  800474:	b80f883a 	mov	r7,r23
  800478:	0809e040 	call	809e04 <drawHorizontalLine>
void highlightButton(struct Button* this){
	draw_notransparent(241, 13, this->Panel->bg_image);
	int i = 0;
	int y = 4* this->y_pos - 2;
	int x = 4* this->x_pos - 3;
	for (i = 0; i < 10; i++, y++){
  80047c:	94e1883a 	add	r16,r18,r19
		drawHorizontalLine(x, y, 76, 0xe711ce);
  800480:	8809883a 	mov	r4,r17
  800484:	900b883a 	mov	r5,r18
  800488:	a80d883a 	mov	r6,r21
  80048c:	b80f883a 	mov	r7,r23
  800490:	0809e040 	call	809e04 <drawHorizontalLine>
void highlightButton(struct Button* this){
	draw_notransparent(241, 13, this->Panel->bg_image);
	int i = 0;
	int y = 4* this->y_pos - 2;
	int x = 4* this->x_pos - 3;
	for (i = 0; i < 10; i++, y++){
  800494:	84e5883a 	add	r18,r16,r19
		drawHorizontalLine(x, y, 76, 0xe711ce);
  800498:	8809883a 	mov	r4,r17
  80049c:	800b883a 	mov	r5,r16
  8004a0:	a80d883a 	mov	r6,r21
  8004a4:	b80f883a 	mov	r7,r23
  8004a8:	0809e040 	call	809e04 <drawHorizontalLine>
  8004ac:	900b883a 	mov	r5,r18
  8004b0:	a80d883a 	mov	r6,r21
  8004b4:	b80f883a 	mov	r7,r23
  8004b8:	8809883a 	mov	r4,r17
  8004bc:	0809e040 	call	809e04 <drawHorizontalLine>
  8004c0:	8809883a 	mov	r4,r17
  8004c4:	94cb883a 	add	r5,r18,r19
  8004c8:	a80d883a 	mov	r6,r21
  8004cc:	b80f883a 	mov	r7,r23
	}

}
  8004d0:	dfc00617 	ldw	ra,24(sp)
  8004d4:	ddc00517 	ldw	r23,20(sp)
  8004d8:	dd400417 	ldw	r21,16(sp)
  8004dc:	dcc00317 	ldw	r19,12(sp)
  8004e0:	dc800217 	ldw	r18,8(sp)
  8004e4:	dc400117 	ldw	r17,4(sp)
  8004e8:	dc000017 	ldw	r16,0(sp)
  8004ec:	dec00704 	addi	sp,sp,28
	draw_notransparent(241, 13, this->Panel->bg_image);
	int i = 0;
	int y = 4* this->y_pos - 2;
	int x = 4* this->x_pos - 3;
	for (i = 0; i < 10; i++, y++){
		drawHorizontalLine(x, y, 76, 0xe711ce);
  8004f0:	0809e041 	jmpi	809e04 <drawHorizontalLine>

008004f4 <drawRange>:
 * this will draw the range of a button with white color
 */
void drawRange(struct Button* this){
	int i = 0;
	int y = this->y_pos;
	for (i = 0; i < this->range->height; i++, y++){
  8004f4:	20c00217 	ldw	r3,8(r4)

/**
 * helper function for debugging
 * this will draw the range of a button with white color
 */
void drawRange(struct Button* this){
  8004f8:	defffc04 	addi	sp,sp,-16
  8004fc:	dc400115 	stw	r17,4(sp)
	int i = 0;
	int y = this->y_pos;
	for (i = 0; i < this->range->height; i++, y++){
  800500:	18800217 	ldw	r2,8(r3)

/**
 * helper function for debugging
 * this will draw the range of a button with white color
 */
void drawRange(struct Button* this){
  800504:	dc000015 	stw	r16,0(sp)
  800508:	dfc00315 	stw	ra,12(sp)
  80050c:	dc800215 	stw	r18,8(sp)
  800510:	2023883a 	mov	r17,r4
	int i = 0;
	int y = this->y_pos;
  800514:	24000817 	ldw	r16,32(r4)
	for (i = 0; i < this->range->height; i++, y++){
  800518:	00800c0e 	bge	zero,r2,80054c <drawRange+0x58>
  80051c:	0025883a 	mov	r18,zero
		drawHorizontalLine(this->x_pos, y, this->range->width, 0xffffff);
  800520:	19800317 	ldw	r6,12(r3)
  800524:	89000717 	ldw	r4,28(r17)
  800528:	800b883a 	mov	r5,r16
  80052c:	01c04034 	movhi	r7,256
  800530:	39ffffc4 	addi	r7,r7,-1
  800534:	0809e040 	call	809e04 <drawHorizontalLine>
 * this will draw the range of a button with white color
 */
void drawRange(struct Button* this){
	int i = 0;
	int y = this->y_pos;
	for (i = 0; i < this->range->height; i++, y++){
  800538:	88c00217 	ldw	r3,8(r17)
  80053c:	94800044 	addi	r18,r18,1
  800540:	84000044 	addi	r16,r16,1
  800544:	18800217 	ldw	r2,8(r3)
  800548:	90bff516 	blt	r18,r2,800520 <drawRange+0x2c>
		drawHorizontalLine(this->x_pos, y, this->range->width, 0xffffff);
	}
}
  80054c:	dfc00317 	ldw	ra,12(sp)
  800550:	dc800217 	ldw	r18,8(sp)
  800554:	dc400117 	ldw	r17,4(sp)
  800558:	dc000017 	ldw	r16,0(sp)
  80055c:	dec00404 	addi	sp,sp,16
  800560:	f800283a 	ret

00800564 <volumeButtonCollide>:
	default:
		break;
	}
}

void volumeButtonCollide(struct Button* this){
  800564:	defffc04 	addi	sp,sp,-16
  800568:	dc000015 	stw	r16,0(sp)
	printf("db current song id is %d", db.curr_song_id);
  80056c:	04002134 	movhi	r16,132
  800570:	840a6204 	addi	r16,r16,10632
  800574:	81400017 	ldw	r5,0(r16)
	default:
		break;
	}
}

void volumeButtonCollide(struct Button* this){
  800578:	dc400115 	stw	r17,4(sp)
  80057c:	2023883a 	mov	r17,r4
	printf("db current song id is %d", db.curr_song_id);
  800580:	010020f4 	movhi	r4,131
  800584:	210bb304 	addi	r4,r4,11980
	default:
		break;
	}
}

void volumeButtonCollide(struct Button* this){
  800588:	dfc00315 	stw	ra,12(sp)
  80058c:	dc800215 	stw	r18,8(sp)
	printf("db current song id is %d", db.curr_song_id);
  800590:	08220680 	call	822068 <printf>
	int song_id = db.curr_song_id;
  800594:	80c00017 	ldw	r3,0(r16)
	if (song_id == 0){return;}
  800598:	18001626 	beq	r3,zero,8005f4 <volumeButtonCollide+0x90>
	if (db.songs[song_id]->sound == NULL){return;}
  80059c:	18c5883a 	add	r2,r3,r3
  8005a0:	1085883a 	add	r2,r2,r2
  8005a4:	1421883a 	add	r16,r2,r16
  8005a8:	81403617 	ldw	r5,216(r16)
  8005ac:	84803604 	addi	r18,r16,216
  8005b0:	28800017 	ldw	r2,0(r5)
  8005b4:	10000f26 	beq	r2,zero,8005f4 <volumeButtonCollide+0x90>
	switch(this->type){
  8005b8:	89000417 	ldw	r4,16(r17)
  8005bc:	20000b1e 	bne	r4,zero,8005ec <volumeButtonCollide+0x88>
	case 0:
		if (db.songs[song_id]->volume < 100){
  8005c0:	29400717 	ldw	r5,28(r5)
  8005c4:	008018c4 	movi	r2,99
  8005c8:	1140100e 	bge	r2,r5,80060c <volumeButtonCollide+0xa8>
			syncSetVol(song_id, db.songs[song_id]->volume + 1);
			printf("Volume of %s is %d\n", db.songs[song_id]->song_name, db.songs[song_id]->volume);
			// update the value
		} else {
			printf("Maximum volume reached.");
  8005cc:	010020f4 	movhi	r4,131
  8005d0:	210bbf04 	addi	r4,r4,12028
		break;
	default:
		break;
	}

}
  8005d4:	dfc00317 	ldw	ra,12(sp)
  8005d8:	dc800217 	ldw	r18,8(sp)
  8005dc:	dc400117 	ldw	r17,4(sp)
  8005e0:	dc000017 	ldw	r16,0(sp)
  8005e4:	dec00404 	addi	sp,sp,16
		if (db.songs[song_id]->volume > 0){
			syncSetVol(song_id, db.songs[song_id]->volume - 1);
			printf("Volume of %s is %d\n", db.songs[song_id]->song_name, db.songs[song_id]->volume);
			// update the value
		} else {
			printf("Minimum volume reached.");
  8005e8:	08220681 	jmpi	822068 <printf>
void volumeButtonCollide(struct Button* this){
	printf("db current song id is %d", db.curr_song_id);
	int song_id = db.curr_song_id;
	if (song_id == 0){return;}
	if (db.songs[song_id]->sound == NULL){return;}
	switch(this->type){
  8005ec:	00800044 	movi	r2,1
  8005f0:	20801426 	beq	r4,r2,800644 <volumeButtonCollide+0xe0>
		break;
	default:
		break;
	}

}
  8005f4:	dfc00317 	ldw	ra,12(sp)
  8005f8:	dc800217 	ldw	r18,8(sp)
  8005fc:	dc400117 	ldw	r17,4(sp)
  800600:	dc000017 	ldw	r16,0(sp)
  800604:	dec00404 	addi	sp,sp,16
  800608:	f800283a 	ret
	if (song_id == 0){return;}
	if (db.songs[song_id]->sound == NULL){return;}
	switch(this->type){
	case 0:
		if (db.songs[song_id]->volume < 100){
			syncSetVol(song_id, db.songs[song_id]->volume + 1);
  80060c:	29400044 	addi	r5,r5,1
  800610:	1809883a 	mov	r4,r3
  800614:	08032dc0 	call	8032dc <syncSetVol>
			printf("Volume of %s is %d\n", db.songs[song_id]->song_name, db.songs[song_id]->volume);
  800618:	81403617 	ldw	r5,216(r16)
		}
		break;
	case 1:
		if (db.songs[song_id]->volume > 0){
			syncSetVol(song_id, db.songs[song_id]->volume - 1);
			printf("Volume of %s is %d\n", db.songs[song_id]->song_name, db.songs[song_id]->volume);
  80061c:	29800717 	ldw	r6,28(r5)
  800620:	010020f4 	movhi	r4,131
  800624:	210bba04 	addi	r4,r4,12008
  800628:	29400104 	addi	r5,r5,4
		break;
	default:
		break;
	}

}
  80062c:	dfc00317 	ldw	ra,12(sp)
  800630:	dc800217 	ldw	r18,8(sp)
  800634:	dc400117 	ldw	r17,4(sp)
  800638:	dc000017 	ldw	r16,0(sp)
  80063c:	dec00404 	addi	sp,sp,16
		}
		break;
	case 1:
		if (db.songs[song_id]->volume > 0){
			syncSetVol(song_id, db.songs[song_id]->volume - 1);
			printf("Volume of %s is %d\n", db.songs[song_id]->song_name, db.songs[song_id]->volume);
  800640:	08220681 	jmpi	822068 <printf>
		} else {
			printf("Maximum volume reached.");
		}
		break;
	case 1:
		if (db.songs[song_id]->volume > 0){
  800644:	28800717 	ldw	r2,28(r5)
  800648:	0080050e 	bge	zero,r2,800660 <volumeButtonCollide+0xfc>
			syncSetVol(song_id, db.songs[song_id]->volume - 1);
  80064c:	110bc83a 	sub	r5,r2,r4
  800650:	1809883a 	mov	r4,r3
  800654:	08032dc0 	call	8032dc <syncSetVol>
			printf("Volume of %s is %d\n", db.songs[song_id]->song_name, db.songs[song_id]->volume);
  800658:	91400017 	ldw	r5,0(r18)
  80065c:	003fef06 	br	80061c <volumeButtonCollide+0xb8>
			// update the value
		} else {
			printf("Minimum volume reached.");
  800660:	010020f4 	movhi	r4,131
  800664:	210bc504 	addi	r4,r4,12052
  800668:	003fda06 	br	8005d4 <volumeButtonCollide+0x70>

0080066c <allSongsMenuButtonCollide>:
		printf("Playlist frame is NULL\n");
		return;
	}
	this->Panel->mainFrame->elements[3]->drawFrame(this->Panel->mainFrame->elements[3]);
}
void allSongsMenuButtonCollide(struct Button* this){
  80066c:	defffe04 	addi	sp,sp,-8
  800670:	dc400015 	stw	r17,0(sp)
  800674:	2023883a 	mov	r17,r4
  800678:	dfc00115 	stw	ra,4(sp)
	clearSongPanel();
  80067c:	08079200 	call	807920 <clearSongPanel>
	if (this->Panel->mainFrame->elements[2] == NULL){
  800680:	89400117 	ldw	r5,4(r17)
		printf("All Songs frame is NULL\n");
  800684:	010020f4 	movhi	r4,131
  800688:	210bcb04 	addi	r4,r4,12076
	}
	this->Panel->mainFrame->elements[3]->drawFrame(this->Panel->mainFrame->elements[3]);
}
void allSongsMenuButtonCollide(struct Button* this){
	clearSongPanel();
	if (this->Panel->mainFrame->elements[2] == NULL){
  80068c:	28800717 	ldw	r2,28(r5)
  800690:	10c00017 	ldw	r3,0(r2)
  800694:	18c00217 	ldw	r3,8(r3)
  800698:	18000626 	beq	r3,zero,8006b4 <allSongsMenuButtonCollide+0x48>
		printf("All Songs frame is NULL\n");
		return;
	}
	this->Panel->mainFrame->elements[2]->drawFrame(this->Panel->mainFrame->elements[2]);
  80069c:	18800817 	ldw	r2,32(r3)
  8006a0:	1809883a 	mov	r4,r3
}
  8006a4:	dfc00117 	ldw	ra,4(sp)
  8006a8:	dc400017 	ldw	r17,0(sp)
  8006ac:	dec00204 	addi	sp,sp,8
	clearSongPanel();
	if (this->Panel->mainFrame->elements[2] == NULL){
		printf("All Songs frame is NULL\n");
		return;
	}
	this->Panel->mainFrame->elements[2]->drawFrame(this->Panel->mainFrame->elements[2]);
  8006b0:	1000683a 	jmp	r2
}
  8006b4:	dfc00117 	ldw	ra,4(sp)
  8006b8:	dc400017 	ldw	r17,0(sp)
  8006bc:	dec00204 	addi	sp,sp,8
	this->Panel->mainFrame->elements[3]->drawFrame(this->Panel->mainFrame->elements[3]);
}
void allSongsMenuButtonCollide(struct Button* this){
	clearSongPanel();
	if (this->Panel->mainFrame->elements[2] == NULL){
		printf("All Songs frame is NULL\n");
  8006c0:	08221801 	jmpi	822180 <puts>

008006c4 <playlistMenuButtonCollide>:
		break;
	default:
		break;
	}
}
void playlistMenuButtonCollide(struct Button* this){
  8006c4:	defffe04 	addi	sp,sp,-8
  8006c8:	dc400015 	stw	r17,0(sp)
  8006cc:	2023883a 	mov	r17,r4
  8006d0:	dfc00115 	stw	ra,4(sp)
	clearSongPanel();
  8006d4:	08079200 	call	807920 <clearSongPanel>
	if (this->Panel->mainFrame->elements[3] == NULL){
  8006d8:	89400117 	ldw	r5,4(r17)
		printf("Playlist frame is NULL\n");
  8006dc:	010020f4 	movhi	r4,131
  8006e0:	210bd104 	addi	r4,r4,12100
		break;
	}
}
void playlistMenuButtonCollide(struct Button* this){
	clearSongPanel();
	if (this->Panel->mainFrame->elements[3] == NULL){
  8006e4:	28800717 	ldw	r2,28(r5)
  8006e8:	10c00017 	ldw	r3,0(r2)
  8006ec:	18c00317 	ldw	r3,12(r3)
  8006f0:	18000626 	beq	r3,zero,80070c <playlistMenuButtonCollide+0x48>
		printf("Playlist frame is NULL\n");
		return;
	}
	this->Panel->mainFrame->elements[3]->drawFrame(this->Panel->mainFrame->elements[3]);
  8006f4:	18800817 	ldw	r2,32(r3)
  8006f8:	1809883a 	mov	r4,r3
}
  8006fc:	dfc00117 	ldw	ra,4(sp)
  800700:	dc400017 	ldw	r17,0(sp)
  800704:	dec00204 	addi	sp,sp,8
	clearSongPanel();
	if (this->Panel->mainFrame->elements[3] == NULL){
		printf("Playlist frame is NULL\n");
		return;
	}
	this->Panel->mainFrame->elements[3]->drawFrame(this->Panel->mainFrame->elements[3]);
  800708:	1000683a 	jmp	r2
}
  80070c:	dfc00117 	ldw	ra,4(sp)
  800710:	dc400017 	ldw	r17,0(sp)
  800714:	dec00204 	addi	sp,sp,8
	}
}
void playlistMenuButtonCollide(struct Button* this){
	clearSongPanel();
	if (this->Panel->mainFrame->elements[3] == NULL){
		printf("Playlist frame is NULL\n");
  800718:	08221801 	jmpi	822180 <puts>

0080071c <killSongButton>:
	sb->collide = songButtonCollide;
	sb->id = id;
	return sb;
}

void killSongButton(struct Button** this) {
  80071c:	defffe04 	addi	sp,sp,-8
  800720:	dc000015 	stw	r16,0(sp)
  800724:	dfc00115 	stw	ra,4(sp)
  800728:	2021883a 	mov	r16,r4
	if(this == NULL || (*this) == NULL) return;
  80072c:	20000a26 	beq	r4,zero,800758 <killSongButton+0x3c>
  800730:	20800017 	ldw	r2,0(r4)
  800734:	10000826 	beq	r2,zero,800758 <killSongButton+0x3c>
	free((*this)->range);
  800738:	11000217 	ldw	r4,8(r2)
  80073c:	08216e80 	call	8216e8 <free>
	(*this)->range = NULL;
  800740:	81000017 	ldw	r4,0(r16)
  800744:	20000215 	stw	zero,8(r4)
	(*this)->Panel = NULL;
  800748:	20000115 	stw	zero,4(r4)
	//free((*this)->name);
	(*this)->name = NULL;
  80074c:	20000b15 	stw	zero,44(r4)
	free((*this));
  800750:	08216e80 	call	8216e8 <free>
	*this = NULL;
  800754:	80000015 	stw	zero,0(r16)
}
  800758:	dfc00117 	ldw	ra,4(sp)
  80075c:	dc000017 	ldw	r16,0(sp)
  800760:	dec00204 	addi	sp,sp,8
  800764:	f800283a 	ret

00800768 <initButton>:
#include "Button.h"

struct Button* initButton(){
  800768:	deffff04 	addi	sp,sp,-4
	struct Button* b = (struct Button*)malloc(sizeof(struct Button));
  80076c:	01001004 	movi	r4,64
#include "Button.h"

struct Button* initButton(){
  800770:	dfc00015 	stw	ra,0(sp)
	struct Button* b = (struct Button*)malloc(sizeof(struct Button));
  800774:	08216fc0 	call	8216fc <malloc>
	b->name = NULL;
	b->range = NULL;
	b->x_pos = 0;
	b->y_pos = 0;
	b->buttonType = 3;
  800778:	010000c4 	movi	r4,3
  80077c:	11000015 	stw	r4,0(r2)
	b->collide = dummyCollide;
  800780:	01402034 	movhi	r5,128
  800784:	2940ae04 	addi	r5,r5,696
	b->draw = dummyDraw;
  800788:	01002034 	movhi	r4,128
  80078c:	21007404 	addi	r4,r4,464
	b->name = NULL;
	b->range = NULL;
	b->x_pos = 0;
	b->y_pos = 0;
	b->buttonType = 3;
	b->collide = dummyCollide;
  800790:	11400f15 	stw	r5,60(r2)
	b->draw = dummyDraw;
  800794:	11000e15 	stw	r4,56(r2)
	b->Panel = NULL;
	b->isClicked = 0;
	b->startAnimate = 0;
	b->frame = 0;
  800798:	10000615 	stw	zero,24(r2)
#include "Button.h"

struct Button* initButton(){
	struct Button* b = (struct Button*)malloc(sizeof(struct Button));
	b->name = NULL;
  80079c:	10000b15 	stw	zero,44(r2)
	b->range = NULL;
  8007a0:	10000215 	stw	zero,8(r2)
	b->x_pos = 0;
  8007a4:	10000715 	stw	zero,28(r2)
	b->y_pos = 0;
  8007a8:	10000815 	stw	zero,32(r2)
	b->buttonType = 3;
	b->collide = dummyCollide;
	b->draw = dummyDraw;
	b->Panel = NULL;
  8007ac:	10000115 	stw	zero,4(r2)
	b->isClicked = 0;
  8007b0:	10000915 	stw	zero,36(r2)
	b->startAnimate = 0;
  8007b4:	10000a15 	stw	zero,40(r2)
	b->frame = 0;
	return b;
}
  8007b8:	dfc00017 	ldw	ra,0(sp)
  8007bc:	dec00104 	addi	sp,sp,4
  8007c0:	f800283a 	ret

008007c4 <animateButton>:
	}
	return y;
}

void animateButton(struct Button* this, int stats_index){
	draw(getXActionBtn(this->type), getYActionBtn(this->type), this->stats[stats_index]);
  8007c4:	20c00417 	ldw	r3,16(r4)
	this->Panel->elements[0]->drawFrame(this->Panel->elements[0]);
}

int getXActionBtn(int actionBtnType){
	int x = 0;
	switch(actionBtnType){
  8007c8:	00800104 	movi	r2,4
		break;
	}
	return y;
}

void animateButton(struct Button* this, int stats_index){
  8007cc:	200f883a 	mov	r7,r4
  8007d0:	280d883a 	mov	r6,r5
	this->Panel->elements[0]->drawFrame(this->Panel->elements[0]);
}

int getXActionBtn(int actionBtnType){
	int x = 0;
	switch(actionBtnType){
  8007d4:	10c00c36 	bltu	r2,r3,800808 <animateButton+0x44>
  8007d8:	18c5883a 	add	r2,r3,r3
  8007dc:	1085883a 	add	r2,r2,r2
  8007e0:	00c02034 	movhi	r3,128
  8007e4:	18c1fd04 	addi	r3,r3,2036
  8007e8:	10c5883a 	add	r2,r2,r3
  8007ec:	11000017 	ldw	r4,0(r2)
  8007f0:	2000683a 	jmp	r4
  8007f4:	00800844 	movi	r2,33
  8007f8:	00800884 	movi	r2,34
  8007fc:	00800878 	rdprs	r2,zero,33
  800800:	0080086c 	andhi	r2,zero,33
  800804:	00800850 	cmplti	r2,zero,33
	return x;
}

int getYActionBtn(int actionBtnType){
	int y = 0;
	switch(actionBtnType){
  800808:	18000726 	beq	r3,zero,800828 <animateButton+0x64>
	}
	return y;
}

void animateButton(struct Button* this, int stats_index){
	draw(getXActionBtn(this->type), getYActionBtn(this->type), this->stats[stats_index]);
  80080c:	3185883a 	add	r2,r6,r6
  800810:	1085883a 	add	r2,r2,r2
  800814:	11c5883a 	add	r2,r2,r7
  800818:	11800c17 	ldw	r6,48(r2)
	return x;
}

int getYActionBtn(int actionBtnType){
	int y = 0;
	switch(actionBtnType){
  80081c:	01403344 	movi	r5,205
  800820:	0009883a 	mov	r4,zero
	}
	return y;
}

void animateButton(struct Button* this, int stats_index){
	draw(getXActionBtn(this->type), getYActionBtn(this->type), this->stats[stats_index]);
  800824:	080965c1 	jmpi	80965c <draw>
	return x;
}

int getYActionBtn(int actionBtnType){
	int y = 0;
	switch(actionBtnType){
  800828:	0009883a 	mov	r4,zero
  80082c:	01403204 	movi	r5,200
	}
	return y;
}

void animateButton(struct Button* this, int stats_index){
	draw(getXActionBtn(this->type), getYActionBtn(this->type), this->stats[stats_index]);
  800830:	3185883a 	add	r2,r6,r6
  800834:	1085883a 	add	r2,r2,r2
  800838:	11c5883a 	add	r2,r2,r7
  80083c:	11800c17 	ldw	r6,48(r2)
  800840:	080965c1 	jmpi	80965c <draw>
	this->Panel->elements[0]->drawFrame(this->Panel->elements[0]);
}

int getXActionBtn(int actionBtnType){
	int x = 0;
	switch(actionBtnType){
  800844:	01002444 	movi	r4,145
	return x;
}

int getYActionBtn(int actionBtnType){
	int y = 0;
	switch(actionBtnType){
  800848:	01403204 	movi	r5,200
  80084c:	003ff806 	br	800830 <animateButton+0x6c>
	}
	return y;
}

void animateButton(struct Button* this, int stats_index){
	draw(getXActionBtn(this->type), getYActionBtn(this->type), this->stats[stats_index]);
  800850:	01003344 	movi	r4,205
  800854:	01403344 	movi	r5,205
  800858:	3185883a 	add	r2,r6,r6
  80085c:	1085883a 	add	r2,r2,r2
  800860:	11c5883a 	add	r2,r2,r7
  800864:	11800c17 	ldw	r6,48(r2)
  800868:	080965c1 	jmpi	80965c <draw>
	this->Panel->elements[0]->drawFrame(this->Panel->elements[0]);
}

int getXActionBtn(int actionBtnType){
	int x = 0;
	switch(actionBtnType){
  80086c:	010017c4 	movi	r4,95
	}
	return y;
}

void animateButton(struct Button* this, int stats_index){
	draw(getXActionBtn(this->type), getYActionBtn(this->type), this->stats[stats_index]);
  800870:	01403344 	movi	r5,205
  800874:	003ff806 	br	800858 <animateButton+0x94>
	this->Panel->elements[0]->drawFrame(this->Panel->elements[0]);
}

int getXActionBtn(int actionBtnType){
	int x = 0;
	switch(actionBtnType){
  800878:	01002d04 	movi	r4,180
	}
	return y;
}

void animateButton(struct Button* this, int stats_index){
	draw(getXActionBtn(this->type), getYActionBtn(this->type), this->stats[stats_index]);
  80087c:	01403344 	movi	r5,205
  800880:	003ff506 	br	800858 <animateButton+0x94>
	this->Panel->elements[0]->drawFrame(this->Panel->elements[0]);
}

int getXActionBtn(int actionBtnType){
	int x = 0;
	switch(actionBtnType){
  800884:	01001e04 	movi	r4,120
	}
	return y;
}

void animateButton(struct Button* this, int stats_index){
	draw(getXActionBtn(this->type), getYActionBtn(this->type), this->stats[stats_index]);
  800888:	01403344 	movi	r5,205
  80088c:	003ff206 	br	800858 <animateButton+0x94>

00800890 <menuButtonCollide>:
}
void dummyDraw(struct Button* this){}

void menuButtonCollide(struct Button* this){
	// 0:ALLSONGS, 1:PLAYLISTS
	draw_notransparent(241, 13, this->Panel->mainFrame->elements[2]->bg_image);
  800890:	21800117 	ldw	r6,4(r4)
void drawActionButton(struct Button* this){
	draw(this->x_pos, this->y_pos, this->stats[0]);
}
void dummyDraw(struct Button* this){}

void menuButtonCollide(struct Button* this){
  800894:	defffe04 	addi	sp,sp,-8
  800898:	dc000015 	stw	r16,0(sp)
	// 0:ALLSONGS, 1:PLAYLISTS
	draw_notransparent(241, 13, this->Panel->mainFrame->elements[2]->bg_image);
  80089c:	30800717 	ldw	r2,28(r6)
void drawActionButton(struct Button* this){
	draw(this->x_pos, this->y_pos, this->stats[0]);
}
void dummyDraw(struct Button* this){}

void menuButtonCollide(struct Button* this){
  8008a0:	2021883a 	mov	r16,r4
	// 0:ALLSONGS, 1:PLAYLISTS
	draw_notransparent(241, 13, this->Panel->mainFrame->elements[2]->bg_image);
  8008a4:	01400344 	movi	r5,13
  8008a8:	10c00017 	ldw	r3,0(r2)
  8008ac:	01003c44 	movi	r4,241
void drawActionButton(struct Button* this){
	draw(this->x_pos, this->y_pos, this->stats[0]);
}
void dummyDraw(struct Button* this){}

void menuButtonCollide(struct Button* this){
  8008b0:	dfc00115 	stw	ra,4(sp)
	// 0:ALLSONGS, 1:PLAYLISTS
	draw_notransparent(241, 13, this->Panel->mainFrame->elements[2]->bg_image);
  8008b4:	19c00217 	ldw	r7,8(r3)
  8008b8:	39800617 	ldw	r6,24(r7)
  8008bc:	08097380 	call	809738 <draw_notransparent>
	switch(this->type){
  8008c0:	80c00417 	ldw	r3,16(r16)
  8008c4:	18000626 	beq	r3,zero,8008e0 <menuButtonCollide+0x50>
  8008c8:	00800044 	movi	r2,1
  8008cc:	18801326 	beq	r3,r2,80091c <menuButtonCollide+0x8c>
		this->Panel->mainFrame->currentPanel = 1;
		break;
	default:
		break;
	}
}
  8008d0:	dfc00117 	ldw	ra,4(sp)
  8008d4:	dc000017 	ldw	r16,0(sp)
  8008d8:	dec00204 	addi	sp,sp,8
  8008dc:	f800283a 	ret
		return;
	}
	this->Panel->mainFrame->elements[3]->drawFrame(this->Panel->mainFrame->elements[3]);
}
void allSongsMenuButtonCollide(struct Button* this){
	clearSongPanel();
  8008e0:	08079200 	call	807920 <clearSongPanel>
	if (this->Panel->mainFrame->elements[2] == NULL){
  8008e4:	80800117 	ldw	r2,4(r16)
  8008e8:	10c00717 	ldw	r3,28(r2)
  8008ec:	19000017 	ldw	r4,0(r3)
  8008f0:	21000217 	ldw	r4,8(r4)
  8008f4:	20001926 	beq	r4,zero,80095c <menuButtonCollide+0xcc>
		printf("All Songs frame is NULL\n");
		return;
	}
	this->Panel->mainFrame->elements[2]->drawFrame(this->Panel->mainFrame->elements[2]);
  8008f8:	20800817 	ldw	r2,32(r4)
  8008fc:	103ee83a 	callr	r2
	// 0:ALLSONGS, 1:PLAYLISTS
	draw_notransparent(241, 13, this->Panel->mainFrame->elements[2]->bg_image);
	switch(this->type){
	case 0:
		allSongsMenuButtonCollide(this);
		this->Panel->mainFrame->currentPanel = 0;
  800900:	80800117 	ldw	r2,4(r16)
  800904:	10c00717 	ldw	r3,28(r2)
  800908:	18000415 	stw	zero,16(r3)
		this->Panel->mainFrame->currentPanel = 1;
		break;
	default:
		break;
	}
}
  80090c:	dfc00117 	ldw	ra,4(sp)
  800910:	dc000017 	ldw	r16,0(sp)
  800914:	dec00204 	addi	sp,sp,8
  800918:	f800283a 	ret
void playlistMenuButtonCollide(struct Button* this){
	clearSongPanel();
  80091c:	08079200 	call	807920 <clearSongPanel>
	if (this->Panel->mainFrame->elements[3] == NULL){
  800920:	80800117 	ldw	r2,4(r16)
  800924:	10c00717 	ldw	r3,28(r2)
  800928:	19000017 	ldw	r4,0(r3)
  80092c:	21000317 	ldw	r4,12(r4)
  800930:	20000e26 	beq	r4,zero,80096c <menuButtonCollide+0xdc>
		printf("Playlist frame is NULL\n");
		return;
	}
	this->Panel->mainFrame->elements[3]->drawFrame(this->Panel->mainFrame->elements[3]);
  800934:	20800817 	ldw	r2,32(r4)
  800938:	103ee83a 	callr	r2
		allSongsMenuButtonCollide(this);
		this->Panel->mainFrame->currentPanel = 0;
		break;
	case 1:
		playlistMenuButtonCollide(this);
		this->Panel->mainFrame->currentPanel = 1;
  80093c:	80800117 	ldw	r2,4(r16)
  800940:	00c00044 	movi	r3,1
  800944:	11000717 	ldw	r4,28(r2)
  800948:	20c00415 	stw	r3,16(r4)
		break;
	default:
		break;
	}
}
  80094c:	dfc00117 	ldw	ra,4(sp)
  800950:	dc000017 	ldw	r16,0(sp)
  800954:	dec00204 	addi	sp,sp,8
  800958:	f800283a 	ret
	this->Panel->mainFrame->elements[3]->drawFrame(this->Panel->mainFrame->elements[3]);
}
void allSongsMenuButtonCollide(struct Button* this){
	clearSongPanel();
	if (this->Panel->mainFrame->elements[2] == NULL){
		printf("All Songs frame is NULL\n");
  80095c:	010020f4 	movhi	r4,131
  800960:	210bcb04 	addi	r4,r4,12076
  800964:	08221800 	call	822180 <puts>
  800968:	003fe506 	br	800900 <menuButtonCollide+0x70>
	}
}
void playlistMenuButtonCollide(struct Button* this){
	clearSongPanel();
	if (this->Panel->mainFrame->elements[3] == NULL){
		printf("Playlist frame is NULL\n");
  80096c:	010020f4 	movhi	r4,131
  800970:	210bd104 	addi	r4,r4,12100
  800974:	08221800 	call	822180 <puts>
  800978:	003ff006 	br	80093c <menuButtonCollide+0xac>

0080097c <initSongButton>:
	b->Panel = menuFrame;
	b->buttonType = menu;
	return b;
}

struct Button* initSongButton(int x, int y, char* name, int id, struct Frame* panel){
  80097c:	defffa04 	addi	sp,sp,-24
  800980:	ddc00415 	stw	r23,16(sp)
  800984:	202f883a 	mov	r23,r4
#include "Button.h"

struct Button* initButton(){
	struct Button* b = (struct Button*)malloc(sizeof(struct Button));
  800988:	01001004 	movi	r4,64
	b->Panel = menuFrame;
	b->buttonType = menu;
	return b;
}

struct Button* initSongButton(int x, int y, char* name, int id, struct Frame* panel){
  80098c:	dfc00515 	stw	ra,20(sp)
  800990:	dd400315 	stw	r21,12(sp)
  800994:	dcc00215 	stw	r19,8(sp)
  800998:	282b883a 	mov	r21,r5
  80099c:	3027883a 	mov	r19,r6
  8009a0:	dc400115 	stw	r17,4(sp)
  8009a4:	dc000015 	stw	r16,0(sp)
  8009a8:	3821883a 	mov	r16,r7
#include "Button.h"

struct Button* initButton(){
	struct Button* b = (struct Button*)malloc(sizeof(struct Button));
  8009ac:	08216fc0 	call	8216fc <malloc>
  8009b0:	1023883a 	mov	r17,r2
	b->name = NULL;
	b->range = NULL;
	b->x_pos = 0;
	b->y_pos = 0;
	b->buttonType = 3;
  8009b4:	008000c4 	movi	r2,3
  8009b8:	88800015 	stw	r2,0(r17)
	b->collide = dummyCollide;
	b->draw = dummyDraw;
  8009bc:	00802034 	movhi	r2,128
  8009c0:	10807404 	addi	r2,r2,464
  8009c4:	88800e15 	stw	r2,56(r17)
}

struct Button* initSongButton(int x, int y, char* name, int id, struct Frame* panel){
	struct Button* sb = initButton();
	sb->name = name;
	sb->Panel = panel;
  8009c8:	d8800617 	ldw	r2,24(sp)
	b->name = NULL;
	b->range = NULL;
	b->x_pos = 0;
	b->y_pos = 0;
	b->buttonType = 3;
	b->collide = dummyCollide;
  8009cc:	00c02034 	movhi	r3,128
  8009d0:	18c0ae04 	addi	r3,r3,696

struct Button* initSongButton(int x, int y, char* name, int id, struct Frame* panel){
	struct Button* sb = initButton();
	sb->name = name;
	sb->Panel = panel;
	sb->range = initRange(x, y, 79, 10);
  8009d4:	b809883a 	mov	r4,r23
  8009d8:	a80b883a 	mov	r5,r21
  8009dc:	018013c4 	movi	r6,79
  8009e0:	01c00284 	movi	r7,10
	b->name = NULL;
	b->range = NULL;
	b->x_pos = 0;
	b->y_pos = 0;
	b->buttonType = 3;
	b->collide = dummyCollide;
  8009e4:	88c00f15 	stw	r3,60(r17)
	return b;
}

struct Button* initSongButton(int x, int y, char* name, int id, struct Frame* panel){
	struct Button* sb = initButton();
	sb->name = name;
  8009e8:	8cc00b15 	stw	r19,44(r17)
	sb->Panel = panel;
  8009ec:	88800115 	stw	r2,4(r17)
#include "Button.h"

struct Button* initButton(){
	struct Button* b = (struct Button*)malloc(sizeof(struct Button));
	b->name = NULL;
	b->range = NULL;
  8009f0:	88000215 	stw	zero,8(r17)
	b->x_pos = 0;
  8009f4:	88000715 	stw	zero,28(r17)
	b->y_pos = 0;
  8009f8:	88000815 	stw	zero,32(r17)
	b->buttonType = 3;
	b->collide = dummyCollide;
	b->draw = dummyDraw;
	b->Panel = NULL;
	b->isClicked = 0;
  8009fc:	88000915 	stw	zero,36(r17)
	b->startAnimate = 0;
  800a00:	88000a15 	stw	zero,40(r17)
	b->frame = 0;
  800a04:	88000615 	stw	zero,24(r17)

struct Button* initSongButton(int x, int y, char* name, int id, struct Frame* panel){
	struct Button* sb = initButton();
	sb->name = name;
	sb->Panel = panel;
	sb->range = initRange(x, y, 79, 10);
  800a08:	080c8280 	call	80c828 <initRange>
  800a0c:	88800215 	stw	r2,8(r17)
	sb->x_pos = x;
	sb->y_pos = y;
	sb->draw = drawTxtButton;
  800a10:	00802034 	movhi	r2,128
  800a14:	1080d504 	addi	r2,r2,852
  800a18:	88800e15 	stw	r2,56(r17)
	sb->collide = songButtonCollide;
  800a1c:	00c02034 	movhi	r3,128
  800a20:	18c62b04 	addi	r3,r3,6316
	sb->id = id;
	return sb;
}
  800a24:	8805883a 	mov	r2,r17
struct Button* initSongButton(int x, int y, char* name, int id, struct Frame* panel){
	struct Button* sb = initButton();
	sb->name = name;
	sb->Panel = panel;
	sb->range = initRange(x, y, 79, 10);
	sb->x_pos = x;
  800a28:	8dc00715 	stw	r23,28(r17)
	sb->y_pos = y;
  800a2c:	8d400815 	stw	r21,32(r17)
	sb->draw = drawTxtButton;
	sb->collide = songButtonCollide;
  800a30:	88c00f15 	stw	r3,60(r17)
	sb->id = id;
  800a34:	8c000315 	stw	r16,12(r17)
	return sb;
}
  800a38:	dfc00517 	ldw	ra,20(sp)
  800a3c:	ddc00417 	ldw	r23,16(sp)
  800a40:	dd400317 	ldw	r21,12(sp)
  800a44:	dcc00217 	ldw	r19,8(sp)
  800a48:	dc400117 	ldw	r17,4(sp)
  800a4c:	dc000017 	ldw	r16,0(sp)
  800a50:	dec00604 	addi	sp,sp,24
  800a54:	f800283a 	ret

00800a58 <initMenuButton>:
	b->startAnimate = 0;
	b->frame = 0;
	return b;
}

struct Button* initMenuButton(int x, char* name, int type, struct Frame* menuFrame){
  800a58:	defff904 	addi	sp,sp,-28
  800a5c:	dd000415 	stw	r20,16(sp)
  800a60:	2029883a 	mov	r20,r4
#include "Button.h"

struct Button* initButton(){
	struct Button* b = (struct Button*)malloc(sizeof(struct Button));
  800a64:	01001004 	movi	r4,64
	b->startAnimate = 0;
	b->frame = 0;
	return b;
}

struct Button* initMenuButton(int x, char* name, int type, struct Frame* menuFrame){
  800a68:	dfc00615 	stw	ra,24(sp)
  800a6c:	dd800515 	stw	r22,20(sp)
  800a70:	dcc00315 	stw	r19,12(sp)
  800a74:	282d883a 	mov	r22,r5
  800a78:	3827883a 	mov	r19,r7
  800a7c:	dc800215 	stw	r18,8(sp)
  800a80:	dc400115 	stw	r17,4(sp)
  800a84:	dc000015 	stw	r16,0(sp)
  800a88:	3021883a 	mov	r16,r6
#include "Button.h"

struct Button* initButton(){
	struct Button* b = (struct Button*)malloc(sizeof(struct Button));
  800a8c:	08216fc0 	call	8216fc <malloc>
  800a90:	1023883a 	mov	r17,r2
	return b;
}

struct Button* initMenuButton(int x, char* name, int type, struct Frame* menuFrame){
	struct Button* b = initButton();
	b->range = initRange(x, 1, 30, 10);
  800a94:	04800044 	movi	r18,1
	struct Button* b = (struct Button*)malloc(sizeof(struct Button));
	b->name = NULL;
	b->range = NULL;
	b->x_pos = 0;
	b->y_pos = 0;
	b->buttonType = 3;
  800a98:	008000c4 	movi	r2,3
  800a9c:	88800015 	stw	r2,0(r17)
	b->collide = dummyCollide;
  800aa0:	00c02034 	movhi	r3,128
  800aa4:	18c0ae04 	addi	r3,r3,696
	return b;
}

struct Button* initMenuButton(int x, char* name, int type, struct Frame* menuFrame){
	struct Button* b = initButton();
	b->range = initRange(x, 1, 30, 10);
  800aa8:	a009883a 	mov	r4,r20
  800aac:	900b883a 	mov	r5,r18
  800ab0:	01800784 	movi	r6,30
  800ab4:	01c00284 	movi	r7,10
	b->range = NULL;
	b->x_pos = 0;
	b->y_pos = 0;
	b->buttonType = 3;
	b->collide = dummyCollide;
	b->draw = dummyDraw;
  800ab8:	00802034 	movhi	r2,128
  800abc:	10807404 	addi	r2,r2,464
	b->name = NULL;
	b->range = NULL;
	b->x_pos = 0;
	b->y_pos = 0;
	b->buttonType = 3;
	b->collide = dummyCollide;
  800ac0:	88c00f15 	stw	r3,60(r17)
	b->draw = dummyDraw;
  800ac4:	88800e15 	stw	r2,56(r17)
#include "Button.h"

struct Button* initButton(){
	struct Button* b = (struct Button*)malloc(sizeof(struct Button));
	b->name = NULL;
  800ac8:	88000b15 	stw	zero,44(r17)
	b->range = NULL;
  800acc:	88000215 	stw	zero,8(r17)
	b->x_pos = 0;
  800ad0:	88000715 	stw	zero,28(r17)
	b->y_pos = 0;
  800ad4:	88000815 	stw	zero,32(r17)
	b->buttonType = 3;
	b->collide = dummyCollide;
	b->draw = dummyDraw;
	b->Panel = NULL;
  800ad8:	88000115 	stw	zero,4(r17)
	b->isClicked = 0;
  800adc:	88000915 	stw	zero,36(r17)
	b->startAnimate = 0;
  800ae0:	88000a15 	stw	zero,40(r17)
	b->frame = 0;
  800ae4:	88000615 	stw	zero,24(r17)
	return b;
}

struct Button* initMenuButton(int x, char* name, int type, struct Frame* menuFrame){
	struct Button* b = initButton();
	b->range = initRange(x, 1, 30, 10);
  800ae8:	080c8280 	call	80c828 <initRange>
  800aec:	88800215 	stw	r2,8(r17)
	b->name = name;
	b->x_pos = x;
	b->y_pos = 1; // all menu buttons have to be drawn at y = 1
	b->draw = drawTxtButton;
  800af0:	00802034 	movhi	r2,128
  800af4:	1080d504 	addi	r2,r2,852
  800af8:	88800e15 	stw	r2,56(r17)
	b->type = type;
	b->collide = menuButtonCollide;
  800afc:	00802034 	movhi	r2,128
  800b00:	10822404 	addi	r2,r2,2192
  800b04:	88800f15 	stw	r2,60(r17)
	b->Panel = menuFrame;
	b->buttonType = menu;
	return b;
}
  800b08:	8805883a 	mov	r2,r17
}

struct Button* initMenuButton(int x, char* name, int type, struct Frame* menuFrame){
	struct Button* b = initButton();
	b->range = initRange(x, 1, 30, 10);
	b->name = name;
  800b0c:	8d800b15 	stw	r22,44(r17)
	b->x_pos = x;
  800b10:	8d000715 	stw	r20,28(r17)
	b->y_pos = 1; // all menu buttons have to be drawn at y = 1
  800b14:	8c800815 	stw	r18,32(r17)
	b->draw = drawTxtButton;
	b->type = type;
  800b18:	8c000415 	stw	r16,16(r17)
	b->collide = menuButtonCollide;
	b->Panel = menuFrame;
  800b1c:	8cc00115 	stw	r19,4(r17)
	b->buttonType = menu;
  800b20:	88000015 	stw	zero,0(r17)
	return b;
}
  800b24:	dfc00617 	ldw	ra,24(sp)
  800b28:	dd800517 	ldw	r22,20(sp)
  800b2c:	dd000417 	ldw	r20,16(sp)
  800b30:	dcc00317 	ldw	r19,12(sp)
  800b34:	dc800217 	ldw	r18,8(sp)
  800b38:	dc400117 	ldw	r17,4(sp)
  800b3c:	dc000017 	ldw	r16,0(sp)
  800b40:	dec00704 	addi	sp,sp,28
  800b44:	f800283a 	ret

00800b48 <initVolumeButton>:
	sb->draw = drawActionButton;
	sb->collide = dummyCollide;
	return sb;
}

struct Button* initVolumeButton(int x, int y, int type, struct Frame* panel){
  800b48:	defffa04 	addi	sp,sp,-24
  800b4c:	dd400315 	stw	r21,12(sp)
  800b50:	202b883a 	mov	r21,r4
#include "Button.h"

struct Button* initButton(){
	struct Button* b = (struct Button*)malloc(sizeof(struct Button));
  800b54:	01001004 	movi	r4,64
	sb->draw = drawActionButton;
	sb->collide = dummyCollide;
	return sb;
}

struct Button* initVolumeButton(int x, int y, int type, struct Frame* panel){
  800b58:	dfc00515 	stw	ra,20(sp)
  800b5c:	ddc00415 	stw	r23,16(sp)
  800b60:	dcc00215 	stw	r19,8(sp)
  800b64:	302f883a 	mov	r23,r6
  800b68:	2827883a 	mov	r19,r5
  800b6c:	dc400115 	stw	r17,4(sp)
  800b70:	dc000015 	stw	r16,0(sp)
  800b74:	3821883a 	mov	r16,r7
#include "Button.h"

struct Button* initButton(){
	struct Button* b = (struct Button*)malloc(sizeof(struct Button));
  800b78:	08216fc0 	call	8216fc <malloc>
  800b7c:	1023883a 	mov	r17,r2
	b->name = NULL;
	b->range = NULL;
	b->x_pos = 0;
	b->y_pos = 0;
	b->buttonType = 3;
  800b80:	008000c4 	movi	r2,3
  800b84:	88800015 	stw	r2,0(r17)
	b->collide = dummyCollide;
  800b88:	00c02034 	movhi	r3,128
  800b8c:	18c0ae04 	addi	r3,r3,696

struct Button* initVolumeButton(int x, int y, int type, struct Frame* panel){
	struct Button* vb = initButton();
	vb->x_pos = x;
	vb->y_pos = y;
	vb->range = initRange(vb->x_pos, vb->y_pos, 20, 18);
  800b90:	a809883a 	mov	r4,r21
  800b94:	980b883a 	mov	r5,r19
  800b98:	01800504 	movi	r6,20
  800b9c:	01c00484 	movi	r7,18
	b->range = NULL;
	b->x_pos = 0;
	b->y_pos = 0;
	b->buttonType = 3;
	b->collide = dummyCollide;
	b->draw = dummyDraw;
  800ba0:	00802034 	movhi	r2,128
  800ba4:	10807404 	addi	r2,r2,464
	b->name = NULL;
	b->range = NULL;
	b->x_pos = 0;
	b->y_pos = 0;
	b->buttonType = 3;
	b->collide = dummyCollide;
  800ba8:	88c00f15 	stw	r3,60(r17)
	b->draw = dummyDraw;
  800bac:	88800e15 	stw	r2,56(r17)
#include "Button.h"

struct Button* initButton(){
	struct Button* b = (struct Button*)malloc(sizeof(struct Button));
	b->name = NULL;
  800bb0:	88000b15 	stw	zero,44(r17)
	b->range = NULL;
  800bb4:	88000215 	stw	zero,8(r17)
	b->x_pos = 0;
	b->y_pos = 0;
	b->buttonType = 3;
	b->collide = dummyCollide;
	b->draw = dummyDraw;
	b->Panel = NULL;
  800bb8:	88000115 	stw	zero,4(r17)
	b->isClicked = 0;
  800bbc:	88000915 	stw	zero,36(r17)
	b->startAnimate = 0;
  800bc0:	88000a15 	stw	zero,40(r17)
	b->frame = 0;
  800bc4:	88000615 	stw	zero,24(r17)
	return sb;
}

struct Button* initVolumeButton(int x, int y, int type, struct Frame* panel){
	struct Button* vb = initButton();
	vb->x_pos = x;
  800bc8:	8d400715 	stw	r21,28(r17)
	vb->y_pos = y;
  800bcc:	8cc00815 	stw	r19,32(r17)
	vb->range = initRange(vb->x_pos, vb->y_pos, 20, 18);
  800bd0:	080c8280 	call	80c828 <initRange>
  800bd4:	88800215 	stw	r2,8(r17)
	vb->type = type;
	vb->Panel = panel;
	vb->draw = drawActionButton;
  800bd8:	00802034 	movhi	r2,128
  800bdc:	1080dd04 	addi	r2,r2,884
  800be0:	88800e15 	stw	r2,56(r17)
	vb->collide = volumeButtonCollide;
  800be4:	00c02034 	movhi	r3,128
  800be8:	18c15904 	addi	r3,r3,1380
	return vb;
}
  800bec:	8805883a 	mov	r2,r17
struct Button* initVolumeButton(int x, int y, int type, struct Frame* panel){
	struct Button* vb = initButton();
	vb->x_pos = x;
	vb->y_pos = y;
	vb->range = initRange(vb->x_pos, vb->y_pos, 20, 18);
	vb->type = type;
  800bf0:	8dc00415 	stw	r23,16(r17)
	vb->Panel = panel;
  800bf4:	8c000115 	stw	r16,4(r17)
	vb->draw = drawActionButton;
	vb->collide = volumeButtonCollide;
  800bf8:	88c00f15 	stw	r3,60(r17)
	return vb;
}
  800bfc:	dfc00517 	ldw	ra,20(sp)
  800c00:	ddc00417 	ldw	r23,16(sp)
  800c04:	dd400317 	ldw	r21,12(sp)
  800c08:	dcc00217 	ldw	r19,8(sp)
  800c0c:	dc400117 	ldw	r17,4(sp)
  800c10:	dc000017 	ldw	r16,0(sp)
  800c14:	dec00604 	addi	sp,sp,24
  800c18:	f800283a 	ret

00800c1c <initScrollButton>:
	ab->collide = actionButtonCollide;
	ab->buttonType = action;
	return ab;
}

struct Button* initScrollButton(int x, int y, int type, struct Frame* f){
  800c1c:	defffa04 	addi	sp,sp,-24
  800c20:	dd800415 	stw	r22,16(sp)
  800c24:	202d883a 	mov	r22,r4
#include "Button.h"

struct Button* initButton(){
	struct Button* b = (struct Button*)malloc(sizeof(struct Button));
  800c28:	01001004 	movi	r4,64
	ab->collide = actionButtonCollide;
	ab->buttonType = action;
	return ab;
}

struct Button* initScrollButton(int x, int y, int type, struct Frame* f){
  800c2c:	dfc00515 	stw	ra,20(sp)
  800c30:	dd000315 	stw	r20,12(sp)
  800c34:	dc800215 	stw	r18,8(sp)
  800c38:	2829883a 	mov	r20,r5
  800c3c:	dc400115 	stw	r17,4(sp)
  800c40:	dc000015 	stw	r16,0(sp)
  800c44:	3021883a 	mov	r16,r6
#include "Button.h"

struct Button* initButton(){
	struct Button* b = (struct Button*)malloc(sizeof(struct Button));
  800c48:	08216fc0 	call	8216fc <malloc>

struct Button* initScrollButton(int x, int y, int type, struct Frame* f){
	struct Button* sb = initButton();
	sb->x_pos = x;
	sb->y_pos = y;
	sb->range = initRange(sb->x_pos, sb->y_pos, 10, 10);
  800c4c:	01800284 	movi	r6,10
#include "Button.h"

struct Button* initButton(){
	struct Button* b = (struct Button*)malloc(sizeof(struct Button));
  800c50:	1023883a 	mov	r17,r2
	b->name = NULL;
	b->range = NULL;
	b->x_pos = 0;
	b->y_pos = 0;
	b->buttonType = 3;
	b->collide = dummyCollide;
  800c54:	04802034 	movhi	r18,128
  800c58:	9480ae04 	addi	r18,r18,696
	b->draw = dummyDraw;
  800c5c:	00c02034 	movhi	r3,128
  800c60:	18c07404 	addi	r3,r3,464

struct Button* initScrollButton(int x, int y, int type, struct Frame* f){
	struct Button* sb = initButton();
	sb->x_pos = x;
	sb->y_pos = y;
	sb->range = initRange(sb->x_pos, sb->y_pos, 10, 10);
  800c64:	b009883a 	mov	r4,r22
  800c68:	a00b883a 	mov	r5,r20
  800c6c:	300f883a 	mov	r7,r6
	struct Button* b = (struct Button*)malloc(sizeof(struct Button));
	b->name = NULL;
	b->range = NULL;
	b->x_pos = 0;
	b->y_pos = 0;
	b->buttonType = 3;
  800c70:	008000c4 	movi	r2,3
  800c74:	88800015 	stw	r2,0(r17)
	b->collide = dummyCollide;
	b->draw = dummyDraw;
  800c78:	88c00e15 	stw	r3,56(r17)
#include "Button.h"

struct Button* initButton(){
	struct Button* b = (struct Button*)malloc(sizeof(struct Button));
	b->name = NULL;
  800c7c:	88000b15 	stw	zero,44(r17)
	b->range = NULL;
  800c80:	88000215 	stw	zero,8(r17)
	b->x_pos = 0;
	b->y_pos = 0;
	b->buttonType = 3;
	b->collide = dummyCollide;
  800c84:	8c800f15 	stw	r18,60(r17)
	b->draw = dummyDraw;
	b->Panel = NULL;
  800c88:	88000115 	stw	zero,4(r17)
	b->isClicked = 0;
  800c8c:	88000915 	stw	zero,36(r17)
	b->startAnimate = 0;
  800c90:	88000a15 	stw	zero,40(r17)
	b->frame = 0;
  800c94:	88000615 	stw	zero,24(r17)
	return ab;
}

struct Button* initScrollButton(int x, int y, int type, struct Frame* f){
	struct Button* sb = initButton();
	sb->x_pos = x;
  800c98:	8d800715 	stw	r22,28(r17)
	sb->y_pos = y;
  800c9c:	8d000815 	stw	r20,32(r17)
	sb->range = initRange(sb->x_pos, sb->y_pos, 10, 10);
  800ca0:	080c8280 	call	80c828 <initRange>
  800ca4:	88800215 	stw	r2,8(r17)
	sb->type = type;
	sb->draw = drawActionButton;
  800ca8:	00802034 	movhi	r2,128
  800cac:	1080dd04 	addi	r2,r2,884
  800cb0:	88800e15 	stw	r2,56(r17)
	sb->collide = dummyCollide;
	return sb;
}
  800cb4:	8805883a 	mov	r2,r17
struct Button* initScrollButton(int x, int y, int type, struct Frame* f){
	struct Button* sb = initButton();
	sb->x_pos = x;
	sb->y_pos = y;
	sb->range = initRange(sb->x_pos, sb->y_pos, 10, 10);
	sb->type = type;
  800cb8:	8c000415 	stw	r16,16(r17)
	sb->draw = drawActionButton;
	sb->collide = dummyCollide;
  800cbc:	8c800f15 	stw	r18,60(r17)
	return sb;
}
  800cc0:	dfc00517 	ldw	ra,20(sp)
  800cc4:	dd800417 	ldw	r22,16(sp)
  800cc8:	dd000317 	ldw	r20,12(sp)
  800ccc:	dc800217 	ldw	r18,8(sp)
  800cd0:	dc400117 	ldw	r17,4(sp)
  800cd4:	dc000017 	ldw	r16,0(sp)
  800cd8:	dec00604 	addi	sp,sp,24
  800cdc:	f800283a 	ret

00800ce0 <initActionButton>:
	return pb;
}

// action button type - used for drawing position later
// 0:PLAY, 1:STOP, 2:PAUSE, 3:PREV, 4:NEXT
struct Button* initActionButton(int type, struct Frame* f){
  800ce0:	defffc04 	addi	sp,sp,-16
  800ce4:	dc400115 	stw	r17,4(sp)
  800ce8:	2023883a 	mov	r17,r4
#include "Button.h"

struct Button* initButton(){
	struct Button* b = (struct Button*)malloc(sizeof(struct Button));
  800cec:	01001004 	movi	r4,64
	return pb;
}

// action button type - used for drawing position later
// 0:PLAY, 1:STOP, 2:PAUSE, 3:PREV, 4:NEXT
struct Button* initActionButton(int type, struct Frame* f){
  800cf0:	dc800215 	stw	r18,8(sp)
  800cf4:	dc000015 	stw	r16,0(sp)
  800cf8:	dfc00315 	stw	ra,12(sp)
  800cfc:	2825883a 	mov	r18,r5
#include "Button.h"

struct Button* initButton(){
	struct Button* b = (struct Button*)malloc(sizeof(struct Button));
  800d00:	08216fc0 	call	8216fc <malloc>
  800d04:	1021883a 	mov	r16,r2
	b->name = NULL;
	b->range = NULL;
	b->x_pos = 0;
	b->y_pos = 0;
	b->buttonType = 3;
  800d08:	008000c4 	movi	r2,3
  800d0c:	80800015 	stw	r2,0(r16)
	b->collide = dummyCollide;
	b->draw = dummyDraw;
  800d10:	00802034 	movhi	r2,128
  800d14:	10807404 	addi	r2,r2,464
	b->name = NULL;
	b->range = NULL;
	b->x_pos = 0;
	b->y_pos = 0;
	b->buttonType = 3;
	b->collide = dummyCollide;
  800d18:	00c02034 	movhi	r3,128
  800d1c:	18c0ae04 	addi	r3,r3,696
	b->draw = dummyDraw;
  800d20:	80800e15 	stw	r2,56(r16)
	this->Panel->elements[0]->drawFrame(this->Panel->elements[0]);
}

int getXActionBtn(int actionBtnType){
	int x = 0;
	switch(actionBtnType){
  800d24:	00800104 	movi	r2,4
	b->name = NULL;
	b->range = NULL;
	b->x_pos = 0;
	b->y_pos = 0;
	b->buttonType = 3;
	b->collide = dummyCollide;
  800d28:	80c00f15 	stw	r3,60(r16)
#include "Button.h"

struct Button* initButton(){
	struct Button* b = (struct Button*)malloc(sizeof(struct Button));
	b->name = NULL;
  800d2c:	80000b15 	stw	zero,44(r16)
	b->range = NULL;
  800d30:	80000215 	stw	zero,8(r16)
	b->x_pos = 0;
  800d34:	80000715 	stw	zero,28(r16)
	b->y_pos = 0;
  800d38:	80000815 	stw	zero,32(r16)
	b->buttonType = 3;
	b->collide = dummyCollide;
	b->draw = dummyDraw;
	b->Panel = NULL;
  800d3c:	80000115 	stw	zero,4(r16)
	b->isClicked = 0;
  800d40:	80000915 	stw	zero,36(r16)
	b->startAnimate = 0;
  800d44:	80000a15 	stw	zero,40(r16)
	b->frame = 0;
  800d48:	80000615 	stw	zero,24(r16)
	this->Panel->elements[0]->drawFrame(this->Panel->elements[0]);
}

int getXActionBtn(int actionBtnType){
	int x = 0;
	switch(actionBtnType){
  800d4c:	14400c36 	bltu	r2,r17,800d80 <initActionButton+0xa0>
  800d50:	8c45883a 	add	r2,r17,r17
  800d54:	1085883a 	add	r2,r2,r2
  800d58:	00c02034 	movhi	r3,128
  800d5c:	18c35b04 	addi	r3,r3,3436
  800d60:	10c5883a 	add	r2,r2,r3
  800d64:	11000017 	ldw	r4,0(r2)
  800d68:	2000683a 	jmp	r4
  800d6c:	00800dec 	andhi	r2,zero,55
  800d70:	00800e20 	cmpeqi	r2,zero,56
  800d74:	00800e14 	movui	r2,56
  800d78:	00800e08 	cmpgei	r2,zero,56
  800d7c:	00800dfc 	xorhi	r2,zero,55

// action button type - used for drawing position later
// 0:PLAY, 1:STOP, 2:PAUSE, 3:PREV, 4:NEXT
struct Button* initActionButton(int type, struct Frame* f){
	struct Button* ab = initButton();
	ab->x_pos = getXActionBtn(type);
  800d80:	80000715 	stw	zero,28(r16)
	return x;
}

int getYActionBtn(int actionBtnType){
	int y = 0;
	switch(actionBtnType){
  800d84:	88001b26 	beq	r17,zero,800df4 <initActionButton+0x114>

// action button type - used for drawing position later
// 0:PLAY, 1:STOP, 2:PAUSE, 3:PREV, 4:NEXT
struct Button* initActionButton(int type, struct Frame* f){
	struct Button* ab = initButton();
	ab->x_pos = getXActionBtn(type);
  800d88:	00803344 	movi	r2,205
	ab->y_pos = getYActionBtn(type);
	ab->range = initRange(ab->x_pos, ab->y_pos, 20, 20);
  800d8c:	81000717 	ldw	r4,28(r16)
  800d90:	01800504 	movi	r6,20
  800d94:	100b883a 	mov	r5,r2
  800d98:	300f883a 	mov	r7,r6
// action button type - used for drawing position later
// 0:PLAY, 1:STOP, 2:PAUSE, 3:PREV, 4:NEXT
struct Button* initActionButton(int type, struct Frame* f){
	struct Button* ab = initButton();
	ab->x_pos = getXActionBtn(type);
	ab->y_pos = getYActionBtn(type);
  800d9c:	80800815 	stw	r2,32(r16)
	ab->range = initRange(ab->x_pos, ab->y_pos, 20, 20);
  800da0:	080c8280 	call	80c828 <initRange>
  800da4:	80800215 	stw	r2,8(r16)
	ab->type = type;
	ab->Panel = f;
	ab->draw = drawActionButton;
  800da8:	00802034 	movhi	r2,128
  800dac:	1080dd04 	addi	r2,r2,884
  800db0:	80800e15 	stw	r2,56(r16)
	ab->collide = actionButtonCollide;
	ab->buttonType = action;
  800db4:	00800044 	movi	r2,1
	ab->y_pos = getYActionBtn(type);
	ab->range = initRange(ab->x_pos, ab->y_pos, 20, 20);
	ab->type = type;
	ab->Panel = f;
	ab->draw = drawActionButton;
	ab->collide = actionButtonCollide;
  800db8:	00c02034 	movhi	r3,128
  800dbc:	18c79404 	addi	r3,r3,7760
	ab->buttonType = action;
  800dc0:	80800015 	stw	r2,0(r16)
	return ab;
}
  800dc4:	8005883a 	mov	r2,r16
struct Button* initActionButton(int type, struct Frame* f){
	struct Button* ab = initButton();
	ab->x_pos = getXActionBtn(type);
	ab->y_pos = getYActionBtn(type);
	ab->range = initRange(ab->x_pos, ab->y_pos, 20, 20);
	ab->type = type;
  800dc8:	84400415 	stw	r17,16(r16)
	ab->Panel = f;
  800dcc:	84800115 	stw	r18,4(r16)
	ab->draw = drawActionButton;
	ab->collide = actionButtonCollide;
  800dd0:	80c00f15 	stw	r3,60(r16)
	ab->buttonType = action;
	return ab;
}
  800dd4:	dfc00317 	ldw	ra,12(sp)
  800dd8:	dc800217 	ldw	r18,8(sp)
  800ddc:	dc400117 	ldw	r17,4(sp)
  800de0:	dc000017 	ldw	r16,0(sp)
  800de4:	dec00404 	addi	sp,sp,16
  800de8:	f800283a 	ret

// action button type - used for drawing position later
// 0:PLAY, 1:STOP, 2:PAUSE, 3:PREV, 4:NEXT
struct Button* initActionButton(int type, struct Frame* f){
	struct Button* ab = initButton();
	ab->x_pos = getXActionBtn(type);
  800dec:	00802444 	movi	r2,145
  800df0:	80800715 	stw	r2,28(r16)
	return x;
}

int getYActionBtn(int actionBtnType){
	int y = 0;
	switch(actionBtnType){
  800df4:	00803204 	movi	r2,200
  800df8:	003fe406 	br	800d8c <initActionButton+0xac>

// action button type - used for drawing position later
// 0:PLAY, 1:STOP, 2:PAUSE, 3:PREV, 4:NEXT
struct Button* initActionButton(int type, struct Frame* f){
	struct Button* ab = initButton();
	ab->x_pos = getXActionBtn(type);
  800dfc:	00803344 	movi	r2,205
  800e00:	80800715 	stw	r2,28(r16)
  800e04:	003fe006 	br	800d88 <initActionButton+0xa8>
	this->Panel->elements[0]->drawFrame(this->Panel->elements[0]);
}

int getXActionBtn(int actionBtnType){
	int x = 0;
	switch(actionBtnType){
  800e08:	008017c4 	movi	r2,95

// action button type - used for drawing position later
// 0:PLAY, 1:STOP, 2:PAUSE, 3:PREV, 4:NEXT
struct Button* initActionButton(int type, struct Frame* f){
	struct Button* ab = initButton();
	ab->x_pos = getXActionBtn(type);
  800e0c:	80800715 	stw	r2,28(r16)
  800e10:	003fdd06 	br	800d88 <initActionButton+0xa8>
	this->Panel->elements[0]->drawFrame(this->Panel->elements[0]);
}

int getXActionBtn(int actionBtnType){
	int x = 0;
	switch(actionBtnType){
  800e14:	00802d04 	movi	r2,180

// action button type - used for drawing position later
// 0:PLAY, 1:STOP, 2:PAUSE, 3:PREV, 4:NEXT
struct Button* initActionButton(int type, struct Frame* f){
	struct Button* ab = initButton();
	ab->x_pos = getXActionBtn(type);
  800e18:	80800715 	stw	r2,28(r16)
  800e1c:	003fda06 	br	800d88 <initActionButton+0xa8>
	this->Panel->elements[0]->drawFrame(this->Panel->elements[0]);
}

int getXActionBtn(int actionBtnType){
	int x = 0;
	switch(actionBtnType){
  800e20:	00801e04 	movi	r2,120

// action button type - used for drawing position later
// 0:PLAY, 1:STOP, 2:PAUSE, 3:PREV, 4:NEXT
struct Button* initActionButton(int type, struct Frame* f){
	struct Button* ab = initButton();
	ab->x_pos = getXActionBtn(type);
  800e24:	80800715 	stw	r2,28(r16)
  800e28:	003fd706 	br	800d88 <initActionButton+0xa8>

00800e2c <initPlaylistButton>:
	(*this)->name = NULL;
	free((*this));
	*this = NULL;
}

struct Button* initPlaylistButton(int x, int y, char* name, int id, struct Frame* panel){
  800e2c:	defffa04 	addi	sp,sp,-24
  800e30:	ddc00415 	stw	r23,16(sp)
  800e34:	202f883a 	mov	r23,r4
#include "Button.h"

struct Button* initButton(){
	struct Button* b = (struct Button*)malloc(sizeof(struct Button));
  800e38:	01001004 	movi	r4,64
	(*this)->name = NULL;
	free((*this));
	*this = NULL;
}

struct Button* initPlaylistButton(int x, int y, char* name, int id, struct Frame* panel){
  800e3c:	dfc00515 	stw	ra,20(sp)
  800e40:	dd400315 	stw	r21,12(sp)
  800e44:	dcc00215 	stw	r19,8(sp)
  800e48:	282b883a 	mov	r21,r5
  800e4c:	3027883a 	mov	r19,r6
  800e50:	dc400115 	stw	r17,4(sp)
  800e54:	dc000015 	stw	r16,0(sp)
  800e58:	3821883a 	mov	r16,r7
#include "Button.h"

struct Button* initButton(){
	struct Button* b = (struct Button*)malloc(sizeof(struct Button));
  800e5c:	08216fc0 	call	8216fc <malloc>
  800e60:	1023883a 	mov	r17,r2
	b->name = NULL;
	b->range = NULL;
	b->x_pos = 0;
	b->y_pos = 0;
	b->buttonType = 3;
	b->collide = dummyCollide;
  800e64:	00c02034 	movhi	r3,128
  800e68:	18c0ae04 	addi	r3,r3,696
  800e6c:	88c00f15 	stw	r3,60(r17)
	struct Button* pb = initButton();
	pb->name = name;
	pb->x_pos = x;
	pb->y_pos = y;
	pb->draw = drawTxtButton;
	pb->Panel = panel;
  800e70:	d8c00617 	ldw	r3,24(sp)
	struct Button* b = (struct Button*)malloc(sizeof(struct Button));
	b->name = NULL;
	b->range = NULL;
	b->x_pos = 0;
	b->y_pos = 0;
	b->buttonType = 3;
  800e74:	008000c4 	movi	r2,3
  800e78:	88800015 	stw	r2,0(r17)
	pb->name = name;
	pb->x_pos = x;
	pb->y_pos = y;
	pb->draw = drawTxtButton;
	pb->Panel = panel;
	pb->range = initRange(x, y, 79, 10);
  800e7c:	b809883a 	mov	r4,r23
  800e80:	a80b883a 	mov	r5,r21
  800e84:	018013c4 	movi	r6,79
  800e88:	01c00284 	movi	r7,10
struct Button* initPlaylistButton(int x, int y, char* name, int id, struct Frame* panel){
	struct Button* pb = initButton();
	pb->name = name;
	pb->x_pos = x;
	pb->y_pos = y;
	pb->draw = drawTxtButton;
  800e8c:	00802034 	movhi	r2,128
  800e90:	1080d504 	addi	r2,r2,852
	*this = NULL;
}

struct Button* initPlaylistButton(int x, int y, char* name, int id, struct Frame* panel){
	struct Button* pb = initButton();
	pb->name = name;
  800e94:	8cc00b15 	stw	r19,44(r17)
	pb->x_pos = x;
	pb->y_pos = y;
	pb->draw = drawTxtButton;
  800e98:	88800e15 	stw	r2,56(r17)
	pb->Panel = panel;
  800e9c:	88c00115 	stw	r3,4(r17)
#include "Button.h"

struct Button* initButton(){
	struct Button* b = (struct Button*)malloc(sizeof(struct Button));
	b->name = NULL;
	b->range = NULL;
  800ea0:	88000215 	stw	zero,8(r17)
	b->y_pos = 0;
	b->buttonType = 3;
	b->collide = dummyCollide;
	b->draw = dummyDraw;
	b->Panel = NULL;
	b->isClicked = 0;
  800ea4:	88000915 	stw	zero,36(r17)
	b->startAnimate = 0;
  800ea8:	88000a15 	stw	zero,40(r17)
	b->frame = 0;
  800eac:	88000615 	stw	zero,24(r17)
}

struct Button* initPlaylistButton(int x, int y, char* name, int id, struct Frame* panel){
	struct Button* pb = initButton();
	pb->name = name;
	pb->x_pos = x;
  800eb0:	8dc00715 	stw	r23,28(r17)
	pb->y_pos = y;
  800eb4:	8d400815 	stw	r21,32(r17)
	pb->draw = drawTxtButton;
	pb->Panel = panel;
	pb->range = initRange(x, y, 79, 10);
  800eb8:	080c8280 	call	80c828 <initRange>
  800ebc:	88800215 	stw	r2,8(r17)
	pb->collide = playlistButtonCollide;
  800ec0:	00802034 	movhi	r2,128
  800ec4:	10843404 	addi	r2,r2,4304
  800ec8:	88800f15 	stw	r2,60(r17)
	pb->id = id;
	return pb;
}
  800ecc:	8805883a 	mov	r2,r17
	pb->y_pos = y;
	pb->draw = drawTxtButton;
	pb->Panel = panel;
	pb->range = initRange(x, y, 79, 10);
	pb->collide = playlistButtonCollide;
	pb->id = id;
  800ed0:	8c000315 	stw	r16,12(r17)
	return pb;
}
  800ed4:	dfc00517 	ldw	ra,20(sp)
  800ed8:	ddc00417 	ldw	r23,16(sp)
  800edc:	dd400317 	ldw	r21,12(sp)
  800ee0:	dcc00217 	ldw	r19,8(sp)
  800ee4:	dc400117 	ldw	r17,4(sp)
  800ee8:	dc000017 	ldw	r16,0(sp)
  800eec:	dec00604 	addi	sp,sp,24
  800ef0:	f800283a 	ret

00800ef4 <highlightSongWithID>:
		}
	}
	return NULL;
}

void highlightSongWithID(int id){
  800ef4:	defffd04 	addi	sp,sp,-12

struct Button* querySongButtonFromID(int song_id){
	int i = 1;
	// don't do anything since up and down is not
	// implemented yet
	if (song_id > 14){
  800ef8:	00800384 	movi	r2,14
		}
	}
	return NULL;
}

void highlightSongWithID(int id){
  800efc:	dfc00215 	stw	ra,8(sp)
  800f00:	dc800115 	stw	r18,4(sp)
  800f04:	dc400015 	stw	r17,0(sp)
  800f08:	200f883a 	mov	r7,r4

struct Button* querySongButtonFromID(int song_id){
	int i = 1;
	// don't do anything since up and down is not
	// implemented yet
	if (song_id > 14){
  800f0c:	11001516 	blt	r2,r4,800f64 <highlightSongWithID+0x70>
		return NULL;
	}
	for (i = 1; i < mouse->frame->elements[2]->button_size; i++){
  800f10:	00802134 	movhi	r2,132
  800f14:	108a3a04 	addi	r2,r2,10472
  800f18:	11000017 	ldw	r4,0(r2)
  800f1c:	01400044 	movi	r5,1
  800f20:	20800317 	ldw	r2,12(r4)
  800f24:	10c00017 	ldw	r3,0(r2)
  800f28:	18800217 	ldw	r2,8(r3)
  800f2c:	11800317 	ldw	r6,12(r2)
  800f30:	29800c0e 	bge	r5,r6,800f64 <highlightSongWithID+0x70>
		if (mouse->frame->elements[2]->buttons[i]->id == song_id){
  800f34:	12000117 	ldw	r8,4(r2)
  800f38:	44800117 	ldw	r18,4(r8)
  800f3c:	90800317 	ldw	r2,12(r18)
  800f40:	38801726 	beq	r7,r2,800fa0 <highlightSongWithID+0xac>
  800f44:	4009883a 	mov	r4,r8
  800f48:	00000406 	br	800f5c <highlightSongWithID+0x68>
  800f4c:	20c00217 	ldw	r3,8(r4)
  800f50:	21000104 	addi	r4,r4,4
  800f54:	18800317 	ldw	r2,12(r3)
  800f58:	38800726 	beq	r7,r2,800f78 <highlightSongWithID+0x84>
	// don't do anything since up and down is not
	// implemented yet
	if (song_id > 14){
		return NULL;
	}
	for (i = 1; i < mouse->frame->elements[2]->button_size; i++){
  800f5c:	29400044 	addi	r5,r5,1
  800f60:	29bffa1e 	bne	r5,r6,800f4c <highlightSongWithID+0x58>

void highlightSongWithID(int id){
	if (querySongButtonFromID(id) != NULL){
		highlightButton(querySongButtonFromID(id));
	}
}
  800f64:	dfc00217 	ldw	ra,8(sp)
  800f68:	dc800117 	ldw	r18,4(sp)
  800f6c:	dc400017 	ldw	r17,0(sp)
  800f70:	dec00304 	addi	sp,sp,12
  800f74:	f800283a 	ret
	// implemented yet
	if (song_id > 14){
		return NULL;
	}
	for (i = 1; i < mouse->frame->elements[2]->button_size; i++){
		if (mouse->frame->elements[2]->buttons[i]->id == song_id){
  800f78:	4007883a 	mov	r3,r8
  800f7c:	01000044 	movi	r4,1
  800f80:	00000406 	br	800f94 <highlightSongWithID+0xa0>
  800f84:	1c800217 	ldw	r18,8(r3)
  800f88:	18c00104 	addi	r3,r3,4
  800f8c:	90800317 	ldw	r2,12(r18)
  800f90:	38800326 	beq	r7,r2,800fa0 <highlightSongWithID+0xac>
	// don't do anything since up and down is not
	// implemented yet
	if (song_id > 14){
		return NULL;
	}
	for (i = 1; i < mouse->frame->elements[2]->button_size; i++){
  800f94:	21000044 	addi	r4,r4,1
  800f98:	21bffa1e 	bne	r4,r6,800f84 <highlightSongWithID+0x90>
  800f9c:	0025883a 	mov	r18,zero
	}

}

void highlightButton(struct Button* this){
	draw_notransparent(241, 13, this->Panel->bg_image);
  800fa0:	90800117 	ldw	r2,4(r18)
  800fa4:	01003c44 	movi	r4,241
  800fa8:	01400344 	movi	r5,13
  800fac:	11800617 	ldw	r6,24(r2)
  800fb0:	08097380 	call	809738 <draw_notransparent>
	int i = 0;
	int y = 4* this->y_pos - 2;
	int x = 4* this->x_pos - 3;
  800fb4:	94400717 	ldw	r17,28(r18)
}

void highlightButton(struct Button* this){
	draw_notransparent(241, 13, this->Panel->bg_image);
	int i = 0;
	int y = 4* this->y_pos - 2;
  800fb8:	94800817 	ldw	r18,32(r18)
	int x = 4* this->x_pos - 3;
	for (i = 0; i < 10; i++, y++){
		drawHorizontalLine(x, y, 76, 0xe711ce);
  800fbc:	01801304 	movi	r6,76

void highlightButton(struct Button* this){
	draw_notransparent(241, 13, this->Panel->bg_image);
	int i = 0;
	int y = 4* this->y_pos - 2;
	int x = 4* this->x_pos - 3;
  800fc0:	8c63883a 	add	r17,r17,r17
}

void highlightButton(struct Button* this){
	draw_notransparent(241, 13, this->Panel->bg_image);
	int i = 0;
	int y = 4* this->y_pos - 2;
  800fc4:	94a5883a 	add	r18,r18,r18
	int x = 4* this->x_pos - 3;
  800fc8:	8c63883a 	add	r17,r17,r17
}

void highlightButton(struct Button* this){
	draw_notransparent(241, 13, this->Panel->bg_image);
	int i = 0;
	int y = 4* this->y_pos - 2;
  800fcc:	94a5883a 	add	r18,r18,r18
	int x = 4* this->x_pos - 3;
  800fd0:	8c7fff44 	addi	r17,r17,-3
	for (i = 0; i < 10; i++, y++){
		drawHorizontalLine(x, y, 76, 0xe711ce);
  800fd4:	917fff84 	addi	r5,r18,-2
  800fd8:	8809883a 	mov	r4,r17
  800fdc:	01c039f4 	movhi	r7,231
  800fe0:	39c47384 	addi	r7,r7,4558
  800fe4:	0809e040 	call	809e04 <drawHorizontalLine>
  800fe8:	8809883a 	mov	r4,r17
  800fec:	917fffc4 	addi	r5,r18,-1
  800ff0:	01801304 	movi	r6,76
  800ff4:	01c039f4 	movhi	r7,231
  800ff8:	39c47384 	addi	r7,r7,4558
  800ffc:	0809e040 	call	809e04 <drawHorizontalLine>
  801000:	8809883a 	mov	r4,r17
  801004:	900b883a 	mov	r5,r18
  801008:	01801304 	movi	r6,76
  80100c:	01c039f4 	movhi	r7,231
  801010:	39c47384 	addi	r7,r7,4558
  801014:	0809e040 	call	809e04 <drawHorizontalLine>
  801018:	8809883a 	mov	r4,r17
  80101c:	91400044 	addi	r5,r18,1
  801020:	01801304 	movi	r6,76
  801024:	01c039f4 	movhi	r7,231
  801028:	39c47384 	addi	r7,r7,4558
  80102c:	0809e040 	call	809e04 <drawHorizontalLine>
  801030:	8809883a 	mov	r4,r17
  801034:	91400084 	addi	r5,r18,2
  801038:	01801304 	movi	r6,76
  80103c:	01c039f4 	movhi	r7,231
  801040:	39c47384 	addi	r7,r7,4558
  801044:	0809e040 	call	809e04 <drawHorizontalLine>
  801048:	8809883a 	mov	r4,r17
  80104c:	914000c4 	addi	r5,r18,3
  801050:	01801304 	movi	r6,76
  801054:	01c039f4 	movhi	r7,231
  801058:	39c47384 	addi	r7,r7,4558
  80105c:	0809e040 	call	809e04 <drawHorizontalLine>
  801060:	8809883a 	mov	r4,r17
  801064:	91400104 	addi	r5,r18,4
  801068:	01801304 	movi	r6,76
  80106c:	01c039f4 	movhi	r7,231
  801070:	39c47384 	addi	r7,r7,4558
  801074:	0809e040 	call	809e04 <drawHorizontalLine>
  801078:	8809883a 	mov	r4,r17
  80107c:	91400144 	addi	r5,r18,5
  801080:	01801304 	movi	r6,76
  801084:	01c039f4 	movhi	r7,231
  801088:	39c47384 	addi	r7,r7,4558
  80108c:	0809e040 	call	809e04 <drawHorizontalLine>
  801090:	8809883a 	mov	r4,r17
  801094:	91400184 	addi	r5,r18,6
  801098:	01801304 	movi	r6,76
  80109c:	01c039f4 	movhi	r7,231
  8010a0:	39c47384 	addi	r7,r7,4558
  8010a4:	0809e040 	call	809e04 <drawHorizontalLine>
  8010a8:	8809883a 	mov	r4,r17
  8010ac:	914001c4 	addi	r5,r18,7
  8010b0:	01801304 	movi	r6,76
  8010b4:	01c039f4 	movhi	r7,231
  8010b8:	39c47384 	addi	r7,r7,4558

void highlightSongWithID(int id){
	if (querySongButtonFromID(id) != NULL){
		highlightButton(querySongButtonFromID(id));
	}
}
  8010bc:	dfc00217 	ldw	ra,8(sp)
  8010c0:	dc800117 	ldw	r18,4(sp)
  8010c4:	dc400017 	ldw	r17,0(sp)
  8010c8:	dec00304 	addi	sp,sp,12
	draw_notransparent(241, 13, this->Panel->bg_image);
	int i = 0;
	int y = 4* this->y_pos - 2;
	int x = 4* this->x_pos - 3;
	for (i = 0; i < 10; i++, y++){
		drawHorizontalLine(x, y, 76, 0xe711ce);
  8010cc:	0809e041 	jmpi	809e04 <drawHorizontalLine>

008010d0 <playlistButtonCollide>:
	}

}

void playlistButtonCollide(struct Button* this){
  8010d0:	defff704 	addi	sp,sp,-36
  8010d4:	ddc00715 	stw	r23,28(sp)
	//db.curr_playlist_id = this->id;
	mouse->frame->elements[3]->currentPlaylist = this->id;
  8010d8:	05c02134 	movhi	r23,132
  8010dc:	bdca3a04 	addi	r23,r23,10472
  8010e0:	b8800017 	ldw	r2,0(r23)
	}

}

void highlightButton(struct Button* this){
	draw_notransparent(241, 13, this->Panel->bg_image);
  8010e4:	20c00117 	ldw	r3,4(r4)
		drawHorizontalLine(x, y, 76, 0xe711ce);
	}

}

void playlistButtonCollide(struct Button* this){
  8010e8:	dd400515 	stw	r21,20(sp)
  8010ec:	202b883a 	mov	r21,r4
	//db.curr_playlist_id = this->id;
	mouse->frame->elements[3]->currentPlaylist = this->id;
  8010f0:	11000317 	ldw	r4,12(r2)
  8010f4:	a9c00317 	ldw	r7,12(r21)
	}

}

void highlightButton(struct Button* this){
	draw_notransparent(241, 13, this->Panel->bg_image);
  8010f8:	19800617 	ldw	r6,24(r3)

}

void playlistButtonCollide(struct Button* this){
	//db.curr_playlist_id = this->id;
	mouse->frame->elements[3]->currentPlaylist = this->id;
  8010fc:	20800017 	ldw	r2,0(r4)
	}

}

void highlightButton(struct Button* this){
	draw_notransparent(241, 13, this->Panel->bg_image);
  801100:	01400344 	movi	r5,13
  801104:	01003c44 	movi	r4,241

}

void playlistButtonCollide(struct Button* this){
	//db.curr_playlist_id = this->id;
	mouse->frame->elements[3]->currentPlaylist = this->id;
  801108:	10c00317 	ldw	r3,12(r2)
		drawHorizontalLine(x, y, 76, 0xe711ce);
	}

}

void playlistButtonCollide(struct Button* this){
  80110c:	dfc00815 	stw	ra,32(sp)
  801110:	dd800615 	stw	r22,24(sp)
	//db.curr_playlist_id = this->id;
	mouse->frame->elements[3]->currentPlaylist = this->id;
  801114:	19c00515 	stw	r7,20(r3)
		drawHorizontalLine(x, y, 76, 0xe711ce);
	}

}

void playlistButtonCollide(struct Button* this){
  801118:	dd000415 	stw	r20,16(sp)
  80111c:	dcc00315 	stw	r19,12(sp)
  801120:	dc800215 	stw	r18,8(sp)
  801124:	dc400115 	stw	r17,4(sp)
  801128:	dc000015 	stw	r16,0(sp)
	}

}

void highlightButton(struct Button* this){
	draw_notransparent(241, 13, this->Panel->bg_image);
  80112c:	08097380 	call	809738 <draw_notransparent>
	int i = 0;
	int y = 4* this->y_pos - 2;
  801130:	a9400817 	ldw	r5,32(r21)
	int x = 4* this->x_pos - 3;
  801134:	ac400717 	ldw	r17,28(r21)
	for (i = 0; i < 10; i++, y++){
		drawHorizontalLine(x, y, 76, 0xe711ce);
  801138:	05001304 	movi	r20,76
}

void highlightButton(struct Button* this){
	draw_notransparent(241, 13, this->Panel->bg_image);
	int i = 0;
	int y = 4* this->y_pos - 2;
  80113c:	294b883a 	add	r5,r5,r5
	int x = 4* this->x_pos - 3;
  801140:	8c63883a 	add	r17,r17,r17
}

void highlightButton(struct Button* this){
	draw_notransparent(241, 13, this->Panel->bg_image);
	int i = 0;
	int y = 4* this->y_pos - 2;
  801144:	294b883a 	add	r5,r5,r5
	int x = 4* this->x_pos - 3;
  801148:	8c63883a 	add	r17,r17,r17
	for (i = 0; i < 10; i++, y++){
		drawHorizontalLine(x, y, 76, 0xe711ce);
  80114c:	058039f4 	movhi	r22,231
  801150:	b5847384 	addi	r22,r22,4558

void highlightButton(struct Button* this){
	draw_notransparent(241, 13, this->Panel->bg_image);
	int i = 0;
	int y = 4* this->y_pos - 2;
	int x = 4* this->x_pos - 3;
  801154:	8c7fff44 	addi	r17,r17,-3
	for (i = 0; i < 10; i++, y++){
  801158:	04800044 	movi	r18,1
}

void highlightButton(struct Button* this){
	draw_notransparent(241, 13, this->Panel->bg_image);
	int i = 0;
	int y = 4* this->y_pos - 2;
  80115c:	297fff84 	addi	r5,r5,-2
	int x = 4* this->x_pos - 3;
	for (i = 0; i < 10; i++, y++){
  801160:	2ca1883a 	add	r16,r5,r18
		drawHorizontalLine(x, y, 76, 0xe711ce);
  801164:	8809883a 	mov	r4,r17
  801168:	a00d883a 	mov	r6,r20
  80116c:	b00f883a 	mov	r7,r22
  801170:	0809e040 	call	809e04 <drawHorizontalLine>
void highlightButton(struct Button* this){
	draw_notransparent(241, 13, this->Panel->bg_image);
	int i = 0;
	int y = 4* this->y_pos - 2;
	int x = 4* this->x_pos - 3;
	for (i = 0; i < 10; i++, y++){
  801174:	84a7883a 	add	r19,r16,r18
		drawHorizontalLine(x, y, 76, 0xe711ce);
  801178:	8809883a 	mov	r4,r17
  80117c:	800b883a 	mov	r5,r16
  801180:	a00d883a 	mov	r6,r20
  801184:	b00f883a 	mov	r7,r22
  801188:	0809e040 	call	809e04 <drawHorizontalLine>
void highlightButton(struct Button* this){
	draw_notransparent(241, 13, this->Panel->bg_image);
	int i = 0;
	int y = 4* this->y_pos - 2;
	int x = 4* this->x_pos - 3;
	for (i = 0; i < 10; i++, y++){
  80118c:	9ca1883a 	add	r16,r19,r18
		drawHorizontalLine(x, y, 76, 0xe711ce);
  801190:	8809883a 	mov	r4,r17
  801194:	980b883a 	mov	r5,r19
  801198:	a00d883a 	mov	r6,r20
  80119c:	b00f883a 	mov	r7,r22
  8011a0:	0809e040 	call	809e04 <drawHorizontalLine>
void highlightButton(struct Button* this){
	draw_notransparent(241, 13, this->Panel->bg_image);
	int i = 0;
	int y = 4* this->y_pos - 2;
	int x = 4* this->x_pos - 3;
	for (i = 0; i < 10; i++, y++){
  8011a4:	84a7883a 	add	r19,r16,r18
		drawHorizontalLine(x, y, 76, 0xe711ce);
  8011a8:	8809883a 	mov	r4,r17
  8011ac:	800b883a 	mov	r5,r16
  8011b0:	a00d883a 	mov	r6,r20
  8011b4:	b00f883a 	mov	r7,r22
  8011b8:	0809e040 	call	809e04 <drawHorizontalLine>
void highlightButton(struct Button* this){
	draw_notransparent(241, 13, this->Panel->bg_image);
	int i = 0;
	int y = 4* this->y_pos - 2;
	int x = 4* this->x_pos - 3;
	for (i = 0; i < 10; i++, y++){
  8011bc:	9ca1883a 	add	r16,r19,r18
		drawHorizontalLine(x, y, 76, 0xe711ce);
  8011c0:	8809883a 	mov	r4,r17
  8011c4:	980b883a 	mov	r5,r19
  8011c8:	a00d883a 	mov	r6,r20
  8011cc:	b00f883a 	mov	r7,r22
  8011d0:	0809e040 	call	809e04 <drawHorizontalLine>
void highlightButton(struct Button* this){
	draw_notransparent(241, 13, this->Panel->bg_image);
	int i = 0;
	int y = 4* this->y_pos - 2;
	int x = 4* this->x_pos - 3;
	for (i = 0; i < 10; i++, y++){
  8011d4:	84a7883a 	add	r19,r16,r18
		drawHorizontalLine(x, y, 76, 0xe711ce);
  8011d8:	8809883a 	mov	r4,r17
  8011dc:	800b883a 	mov	r5,r16
  8011e0:	a00d883a 	mov	r6,r20
  8011e4:	b00f883a 	mov	r7,r22
  8011e8:	0809e040 	call	809e04 <drawHorizontalLine>
void highlightButton(struct Button* this){
	draw_notransparent(241, 13, this->Panel->bg_image);
	int i = 0;
	int y = 4* this->y_pos - 2;
	int x = 4* this->x_pos - 3;
	for (i = 0; i < 10; i++, y++){
  8011ec:	9ca1883a 	add	r16,r19,r18
		drawHorizontalLine(x, y, 76, 0xe711ce);
  8011f0:	8809883a 	mov	r4,r17
  8011f4:	980b883a 	mov	r5,r19
  8011f8:	a00d883a 	mov	r6,r20
  8011fc:	b00f883a 	mov	r7,r22
  801200:	0809e040 	call	809e04 <drawHorizontalLine>
void highlightButton(struct Button* this){
	draw_notransparent(241, 13, this->Panel->bg_image);
	int i = 0;
	int y = 4* this->y_pos - 2;
	int x = 4* this->x_pos - 3;
	for (i = 0; i < 10; i++, y++){
  801204:	84a7883a 	add	r19,r16,r18
		drawHorizontalLine(x, y, 76, 0xe711ce);
  801208:	8809883a 	mov	r4,r17
  80120c:	800b883a 	mov	r5,r16
  801210:	a00d883a 	mov	r6,r20
  801214:	b00f883a 	mov	r7,r22
  801218:	0809e040 	call	809e04 <drawHorizontalLine>
  80121c:	980b883a 	mov	r5,r19
  801220:	a00d883a 	mov	r6,r20
  801224:	b00f883a 	mov	r7,r22
  801228:	8809883a 	mov	r4,r17
  80122c:	0809e040 	call	809e04 <drawHorizontalLine>
  801230:	8809883a 	mov	r4,r17
  801234:	9c8b883a 	add	r5,r19,r18
  801238:	a00d883a 	mov	r6,r20
  80123c:	b00f883a 	mov	r7,r22
  801240:	0809e040 	call	809e04 <drawHorizontalLine>

void playlistButtonCollide(struct Button* this){
	//db.curr_playlist_id = this->id;
	mouse->frame->elements[3]->currentPlaylist = this->id;
	highlightButton(this);
	this->Panel->mainFrame->currentPanel = 2;
  801244:	a9400117 	ldw	r5,4(r21)
	mouse->frame->currentPanel = 2;
  801248:	b8800017 	ldw	r2,0(r23)

void playlistButtonCollide(struct Button* this){
	//db.curr_playlist_id = this->id;
	mouse->frame->elements[3]->currentPlaylist = this->id;
	highlightButton(this);
	this->Panel->mainFrame->currentPanel = 2;
  80124c:	01800084 	movi	r6,2
  801250:	29000717 	ldw	r4,28(r5)
	mouse->frame->currentPanel = 2;
  801254:	10c00317 	ldw	r3,12(r2)
	this->Panel->elements[0] = initSongInListPanel(this->Panel->mainFrame, this->id);
  801258:	2c000017 	ldw	r16,0(r5)

void playlistButtonCollide(struct Button* this){
	//db.curr_playlist_id = this->id;
	mouse->frame->elements[3]->currentPlaylist = this->id;
	highlightButton(this);
	this->Panel->mainFrame->currentPanel = 2;
  80125c:	21800415 	stw	r6,16(r4)
	mouse->frame->currentPanel = 2;
  801260:	19800415 	stw	r6,16(r3)
	this->Panel->elements[0] = initSongInListPanel(this->Panel->mainFrame, this->id);
  801264:	a9400317 	ldw	r5,12(r21)
  801268:	080851c0 	call	80851c <initSongInListPanel>
  80126c:	80800015 	stw	r2,0(r16)
	this->Panel->elements[0]->drawFrame(this->Panel->elements[0]);
  801270:	a8800117 	ldw	r2,4(r21)
  801274:	10c00017 	ldw	r3,0(r2)
  801278:	19000017 	ldw	r4,0(r3)
  80127c:	20800817 	ldw	r2,32(r4)
}
  801280:	dfc00817 	ldw	ra,32(sp)
  801284:	ddc00717 	ldw	r23,28(sp)
  801288:	dd800617 	ldw	r22,24(sp)
  80128c:	dd400517 	ldw	r21,20(sp)
  801290:	dd000417 	ldw	r20,16(sp)
  801294:	dcc00317 	ldw	r19,12(sp)
  801298:	dc800217 	ldw	r18,8(sp)
  80129c:	dc400117 	ldw	r17,4(sp)
  8012a0:	dc000017 	ldw	r16,0(sp)
  8012a4:	dec00904 	addi	sp,sp,36
	mouse->frame->elements[3]->currentPlaylist = this->id;
	highlightButton(this);
	this->Panel->mainFrame->currentPanel = 2;
	mouse->frame->currentPanel = 2;
	this->Panel->elements[0] = initSongInListPanel(this->Panel->mainFrame, this->id);
	this->Panel->elements[0]->drawFrame(this->Panel->elements[0]);
  8012a8:	1000683a 	jmp	r2

008012ac <nextButtonCollide>:
		//highlightButton(this->Panel->mainFrame->elements[2]->buttons[db.curr_song_id-1]);
		printf("Prev button is clicked.\n");
	}
}

void nextButtonCollide(struct Button* this){
  8012ac:	defffb04 	addi	sp,sp,-20
  8012b0:	dc000115 	stw	r16,4(sp)
	if(db.curr_song_id >= db.num_of_songs || db.curr_song_id == 0) return;
  8012b4:	04002134 	movhi	r16,132
  8012b8:	840a6204 	addi	r16,r16,10632
  8012bc:	80c00017 	ldw	r3,0(r16)
  8012c0:	8080a717 	ldw	r2,668(r16)
		//highlightButton(this->Panel->mainFrame->elements[2]->buttons[db.curr_song_id-1]);
		printf("Prev button is clicked.\n");
	}
}

void nextButtonCollide(struct Button* this){
  8012c4:	dc400215 	stw	r17,8(sp)
  8012c8:	dfc00415 	stw	ra,16(sp)
  8012cc:	dc800315 	stw	r18,12(sp)
  8012d0:	2023883a 	mov	r17,r4
	if(db.curr_song_id >= db.num_of_songs || db.curr_song_id == 0) return;
  8012d4:	1880040e 	bge	r3,r2,8012e8 <nextButtonCollide+0x3c>
	if (song_id == 0){
		song_id = 1;
	}
	memset(temp, 0 , sizeof(temp)/sizeof(temp[0]));
	sprintf(temp, "%d", db.songs[song_id]->volume);
	alt_up_char_buffer_string(char_buffer, "                    ", 7, 54);
  8012d8:	04802134 	movhi	r18,132
  8012dc:	948a3704 	addi	r18,r18,10460
	}
}

void nextButtonCollide(struct Button* this){
	if(db.curr_song_id >= db.num_of_songs || db.curr_song_id == 0) return;
	syncNext(db.curr_song_id);
  8012e0:	1809883a 	mov	r4,r3
		printf("Prev button is clicked.\n");
	}
}

void nextButtonCollide(struct Button* this){
	if(db.curr_song_id >= db.num_of_songs || db.curr_song_id == 0) return;
  8012e4:	1800061e 	bne	r3,zero,801300 <nextButtonCollide+0x54>
	syncNext(db.curr_song_id);
	updateVolumeValue(db.curr_song_id + 1);
	if(this == NULL) return;
	//highlightButton(this->Panel->mainFrame->elements[2]->buttons[db.curr_song_id+1]);
	printf("Next button is clicked.\n");
}
  8012e8:	dfc00417 	ldw	ra,16(sp)
  8012ec:	dc800317 	ldw	r18,12(sp)
  8012f0:	dc400217 	ldw	r17,8(sp)
  8012f4:	dc000117 	ldw	r16,4(sp)
  8012f8:	dec00504 	addi	sp,sp,20
  8012fc:	f800283a 	ret
	}
}

void nextButtonCollide(struct Button* this){
	if(db.curr_song_id >= db.num_of_songs || db.curr_song_id == 0) return;
	syncNext(db.curr_song_id);
  801300:	08037b40 	call	8037b4 <syncNext>
	updateVolumeValue(db.curr_song_id + 1);
  801304:	80800017 	ldw	r2,0(r16)
	char temp[4];
	if (song_id == 0){
		song_id = 1;
	}
	memset(temp, 0 , sizeof(temp)/sizeof(temp[0]));
	sprintf(temp, "%d", db.songs[song_id]->volume);
  801308:	014020f4 	movhi	r5,131
  80130c:	294bac04 	addi	r5,r5,11952
  801310:	d809883a 	mov	r4,sp
}

void nextButtonCollide(struct Button* this){
	if(db.curr_song_id >= db.num_of_songs || db.curr_song_id == 0) return;
	syncNext(db.curr_song_id);
	updateVolumeValue(db.curr_song_id + 1);
  801314:	10800044 	addi	r2,r2,1
	draw(getXActionBtn(this->type), getYActionBtn(this->type), this->stats[stats_index]);
}

void updateVolumeValue(int song_id){
	char temp[4];
	if (song_id == 0){
  801318:	10001c26 	beq	r2,zero,80138c <nextButtonCollide+0xe0>
		song_id = 1;
	}
	memset(temp, 0 , sizeof(temp)/sizeof(temp[0]));
	sprintf(temp, "%d", db.songs[song_id]->volume);
  80131c:	1085883a 	add	r2,r2,r2
  801320:	1085883a 	add	r2,r2,r2
  801324:	1405883a 	add	r2,r2,r16
  801328:	10c03617 	ldw	r3,216(r2)
void updateVolumeValue(int song_id){
	char temp[4];
	if (song_id == 0){
		song_id = 1;
	}
	memset(temp, 0 , sizeof(temp)/sizeof(temp[0]));
  80132c:	d8000015 	stw	zero,0(sp)
	sprintf(temp, "%d", db.songs[song_id]->volume);
  801330:	19800717 	ldw	r6,28(r3)
  801334:	0822b640 	call	822b64 <sprintf>
	alt_up_char_buffer_string(char_buffer, "                    ", 7, 54);
  801338:	91000017 	ldw	r4,0(r18)
  80133c:	014020f4 	movhi	r5,131
  801340:	294bad04 	addi	r5,r5,11956
  801344:	018001c4 	movi	r6,7
  801348:	01c00d84 	movi	r7,54
  80134c:	082c8c40 	call	82c8c4 <alt_up_char_buffer_string>
	alt_up_char_buffer_string(char_buffer, temp, 8, 54);
  801350:	91000017 	ldw	r4,0(r18)
  801354:	d80b883a 	mov	r5,sp
  801358:	01800204 	movi	r6,8
  80135c:	01c00d84 	movi	r7,54
  801360:	082c8c40 	call	82c8c4 <alt_up_char_buffer_string>
	if(db.curr_song_id >= db.num_of_songs || db.curr_song_id == 0) return;
	syncNext(db.curr_song_id);
	updateVolumeValue(db.curr_song_id + 1);
	if(this == NULL) return;
	//highlightButton(this->Panel->mainFrame->elements[2]->buttons[db.curr_song_id+1]);
	printf("Next button is clicked.\n");
  801364:	010020f4 	movhi	r4,131
  801368:	210bd704 	addi	r4,r4,12124

void nextButtonCollide(struct Button* this){
	if(db.curr_song_id >= db.num_of_songs || db.curr_song_id == 0) return;
	syncNext(db.curr_song_id);
	updateVolumeValue(db.curr_song_id + 1);
	if(this == NULL) return;
  80136c:	883fde26 	beq	r17,zero,8012e8 <nextButtonCollide+0x3c>
	//highlightButton(this->Panel->mainFrame->elements[2]->buttons[db.curr_song_id+1]);
	printf("Next button is clicked.\n");
  801370:	08221800 	call	822180 <puts>
}
  801374:	dfc00417 	ldw	ra,16(sp)
  801378:	dc800317 	ldw	r18,12(sp)
  80137c:	dc400217 	ldw	r17,8(sp)
  801380:	dc000117 	ldw	r16,4(sp)
  801384:	dec00504 	addi	sp,sp,20
  801388:	f800283a 	ret
	draw(getXActionBtn(this->type), getYActionBtn(this->type), this->stats[stats_index]);
}

void updateVolumeValue(int song_id){
	char temp[4];
	if (song_id == 0){
  80138c:	00800044 	movi	r2,1
  801390:	003fe206 	br	80131c <nextButtonCollide+0x70>

00801394 <prevButtonCollide>:
		updateVolumeValue(db.curr_song_id);
	}
}

void prevButtonCollide(struct Button* this){
	if (mouse->frame->currentPanel != 1){
  801394:	00802134 	movhi	r2,132
  801398:	108a3a04 	addi	r2,r2,10472
  80139c:	11400017 	ldw	r5,0(r2)
		printf("Stop button is clicked\n");
		updateVolumeValue(db.curr_song_id);
	}
}

void prevButtonCollide(struct Button* this){
  8013a0:	defffa04 	addi	sp,sp,-24
  8013a4:	dc000115 	stw	r16,4(sp)
	if (mouse->frame->currentPanel != 1){
  8013a8:	28c00317 	ldw	r3,12(r5)
  8013ac:	04000044 	movi	r16,1
		printf("Stop button is clicked\n");
		updateVolumeValue(db.curr_song_id);
	}
}

void prevButtonCollide(struct Button* this){
  8013b0:	dc800315 	stw	r18,12(sp)
	if (mouse->frame->currentPanel != 1){
  8013b4:	18800417 	ldw	r2,16(r3)
		printf("Stop button is clicked\n");
		updateVolumeValue(db.curr_song_id);
	}
}

void prevButtonCollide(struct Button* this){
  8013b8:	dc400215 	stw	r17,8(sp)
  8013bc:	dfc00515 	stw	ra,20(sp)
  8013c0:	dcc00415 	stw	r19,16(sp)
	if (mouse->frame->currentPanel != 1){
		if(db.curr_song_id <= 1 || db.curr_song_id == 0) return;
  8013c4:	04402134 	movhi	r17,132
  8013c8:	8c4a6204 	addi	r17,r17,10632
		printf("Stop button is clicked\n");
		updateVolumeValue(db.curr_song_id);
	}
}

void prevButtonCollide(struct Button* this){
  8013cc:	2025883a 	mov	r18,r4
	if (mouse->frame->currentPanel != 1){
  8013d0:	14002226 	beq	r2,r16,80145c <prevButtonCollide+0xc8>
		if(db.curr_song_id <= 1 || db.curr_song_id == 0) return;
  8013d4:	88800017 	ldw	r2,0(r17)
	if (song_id == 0){
		song_id = 1;
	}
	memset(temp, 0 , sizeof(temp)/sizeof(temp[0]));
	sprintf(temp, "%d", db.songs[song_id]->volume);
	alt_up_char_buffer_string(char_buffer, "                    ", 7, 54);
  8013d8:	04c02134 	movhi	r19,132
  8013dc:	9cca3704 	addi	r19,r19,10460
}

void prevButtonCollide(struct Button* this){
	if (mouse->frame->currentPanel != 1){
		if(db.curr_song_id <= 1 || db.curr_song_id == 0) return;
		syncPrev(db.curr_song_id);
  8013e0:	1009883a 	mov	r4,r2
	}
}

void prevButtonCollide(struct Button* this){
	if (mouse->frame->currentPanel != 1){
		if(db.curr_song_id <= 1 || db.curr_song_id == 0) return;
  8013e4:	80801d0e 	bge	r16,r2,80145c <prevButtonCollide+0xc8>
		syncPrev(db.curr_song_id);
  8013e8:	08038780 	call	803878 <syncPrev>
		updateVolumeValue(db.curr_song_id - 1);
  8013ec:	88800017 	ldw	r2,0(r17)
	char temp[4];
	if (song_id == 0){
		song_id = 1;
	}
	memset(temp, 0 , sizeof(temp)/sizeof(temp[0]));
	sprintf(temp, "%d", db.songs[song_id]->volume);
  8013f0:	014020f4 	movhi	r5,131
  8013f4:	294bac04 	addi	r5,r5,11952
  8013f8:	d809883a 	mov	r4,sp

void prevButtonCollide(struct Button* this){
	if (mouse->frame->currentPanel != 1){
		if(db.curr_song_id <= 1 || db.curr_song_id == 0) return;
		syncPrev(db.curr_song_id);
		updateVolumeValue(db.curr_song_id - 1);
  8013fc:	10bfffc4 	addi	r2,r2,-1
	draw(getXActionBtn(this->type), getYActionBtn(this->type), this->stats[stats_index]);
}

void updateVolumeValue(int song_id){
	char temp[4];
	if (song_id == 0){
  801400:	10001d26 	beq	r2,zero,801478 <prevButtonCollide+0xe4>
		song_id = 1;
	}
	memset(temp, 0 , sizeof(temp)/sizeof(temp[0]));
	sprintf(temp, "%d", db.songs[song_id]->volume);
  801404:	1085883a 	add	r2,r2,r2
  801408:	1085883a 	add	r2,r2,r2
  80140c:	1445883a 	add	r2,r2,r17
  801410:	10c03617 	ldw	r3,216(r2)
void updateVolumeValue(int song_id){
	char temp[4];
	if (song_id == 0){
		song_id = 1;
	}
	memset(temp, 0 , sizeof(temp)/sizeof(temp[0]));
  801414:	d8000015 	stw	zero,0(sp)
	sprintf(temp, "%d", db.songs[song_id]->volume);
  801418:	19800717 	ldw	r6,28(r3)
  80141c:	0822b640 	call	822b64 <sprintf>
	alt_up_char_buffer_string(char_buffer, "                    ", 7, 54);
  801420:	99000017 	ldw	r4,0(r19)
  801424:	014020f4 	movhi	r5,131
  801428:	294bad04 	addi	r5,r5,11956
  80142c:	018001c4 	movi	r6,7
  801430:	01c00d84 	movi	r7,54
  801434:	082c8c40 	call	82c8c4 <alt_up_char_buffer_string>
	alt_up_char_buffer_string(char_buffer, temp, 8, 54);
  801438:	99000017 	ldw	r4,0(r19)
  80143c:	d80b883a 	mov	r5,sp
  801440:	01800204 	movi	r6,8
  801444:	01c00d84 	movi	r7,54
  801448:	082c8c40 	call	82c8c4 <alt_up_char_buffer_string>
		if(db.curr_song_id <= 1 || db.curr_song_id == 0) return;
		syncPrev(db.curr_song_id);
		updateVolumeValue(db.curr_song_id - 1);
		if(this == NULL) return;
		//highlightButton(this->Panel->mainFrame->elements[2]->buttons[db.curr_song_id-1]);
		printf("Prev button is clicked.\n");
  80144c:	010020f4 	movhi	r4,131
  801450:	210bdd04 	addi	r4,r4,12148
void prevButtonCollide(struct Button* this){
	if (mouse->frame->currentPanel != 1){
		if(db.curr_song_id <= 1 || db.curr_song_id == 0) return;
		syncPrev(db.curr_song_id);
		updateVolumeValue(db.curr_song_id - 1);
		if(this == NULL) return;
  801454:	90000126 	beq	r18,zero,80145c <prevButtonCollide+0xc8>
		//highlightButton(this->Panel->mainFrame->elements[2]->buttons[db.curr_song_id-1]);
		printf("Prev button is clicked.\n");
  801458:	08221800 	call	822180 <puts>
	}
}
  80145c:	dfc00517 	ldw	ra,20(sp)
  801460:	dcc00417 	ldw	r19,16(sp)
  801464:	dc800317 	ldw	r18,12(sp)
  801468:	dc400217 	ldw	r17,8(sp)
  80146c:	dc000117 	ldw	r16,4(sp)
  801470:	dec00604 	addi	sp,sp,24
  801474:	f800283a 	ret
	draw(getXActionBtn(this->type), getYActionBtn(this->type), this->stats[stats_index]);
}

void updateVolumeValue(int song_id){
	char temp[4];
	if (song_id == 0){
  801478:	8005883a 	mov	r2,r16
  80147c:	003fe106 	br	801404 <prevButtonCollide+0x70>

00801480 <stopButtonCollide>:
		updateVolumeValue(db.curr_song_id);
	}
}

void stopButtonCollide(struct Button* this){
	if (mouse->frame->currentPanel != 1){
  801480:	00802134 	movhi	r2,132
  801484:	108a3a04 	addi	r2,r2,10472
  801488:	11000017 	ldw	r4,0(r2)
		printf("Pause button is clicked.\n");
		updateVolumeValue(db.curr_song_id);
	}
}

void stopButtonCollide(struct Button* this){
  80148c:	defffc04 	addi	sp,sp,-16
  801490:	dc000115 	stw	r16,4(sp)
	if (mouse->frame->currentPanel != 1){
  801494:	20800317 	ldw	r2,12(r4)
  801498:	04000044 	movi	r16,1
		printf("Pause button is clicked.\n");
		updateVolumeValue(db.curr_song_id);
	}
}

void stopButtonCollide(struct Button* this){
  80149c:	dc400215 	stw	r17,8(sp)
	if (mouse->frame->currentPanel != 1){
  8014a0:	10c00417 	ldw	r3,16(r2)
		printf("Pause button is clicked.\n");
		updateVolumeValue(db.curr_song_id);
	}
}

void stopButtonCollide(struct Button* this){
  8014a4:	dfc00315 	stw	ra,12(sp)
	if (song_id == 0){
		song_id = 1;
	}
	memset(temp, 0 , sizeof(temp)/sizeof(temp[0]));
	sprintf(temp, "%d", db.songs[song_id]->volume);
	alt_up_char_buffer_string(char_buffer, "                    ", 7, 54);
  8014a8:	04402134 	movhi	r17,132
  8014ac:	8c4a3704 	addi	r17,r17,10460
		updateVolumeValue(db.curr_song_id);
	}
}

void stopButtonCollide(struct Button* this){
	if (mouse->frame->currentPanel != 1){
  8014b0:	1c001d26 	beq	r3,r16,801528 <stopButtonCollide+0xa8>
		syncStop();
  8014b4:	08033a00 	call	8033a0 <syncStop>
		printf("Stop button is clicked\n");
  8014b8:	010020f4 	movhi	r4,131
  8014bc:	210be304 	addi	r4,r4,12172
  8014c0:	08221800 	call	822180 <puts>
		updateVolumeValue(db.curr_song_id);
  8014c4:	00c02134 	movhi	r3,132
  8014c8:	18ca6204 	addi	r3,r3,10632
  8014cc:	18800017 	ldw	r2,0(r3)
	char temp[4];
	if (song_id == 0){
		song_id = 1;
	}
	memset(temp, 0 , sizeof(temp)/sizeof(temp[0]));
	sprintf(temp, "%d", db.songs[song_id]->volume);
  8014d0:	014020f4 	movhi	r5,131
  8014d4:	294bac04 	addi	r5,r5,11952
  8014d8:	d809883a 	mov	r4,sp
	draw(getXActionBtn(this->type), getYActionBtn(this->type), this->stats[stats_index]);
}

void updateVolumeValue(int song_id){
	char temp[4];
	if (song_id == 0){
  8014dc:	10001726 	beq	r2,zero,80153c <stopButtonCollide+0xbc>
		song_id = 1;
	}
	memset(temp, 0 , sizeof(temp)/sizeof(temp[0]));
	sprintf(temp, "%d", db.songs[song_id]->volume);
  8014e0:	1085883a 	add	r2,r2,r2
  8014e4:	1085883a 	add	r2,r2,r2
  8014e8:	10c5883a 	add	r2,r2,r3
  8014ec:	10c03617 	ldw	r3,216(r2)
void updateVolumeValue(int song_id){
	char temp[4];
	if (song_id == 0){
		song_id = 1;
	}
	memset(temp, 0 , sizeof(temp)/sizeof(temp[0]));
  8014f0:	d8000015 	stw	zero,0(sp)
	sprintf(temp, "%d", db.songs[song_id]->volume);
  8014f4:	19800717 	ldw	r6,28(r3)
  8014f8:	0822b640 	call	822b64 <sprintf>
	alt_up_char_buffer_string(char_buffer, "                    ", 7, 54);
  8014fc:	89000017 	ldw	r4,0(r17)
  801500:	014020f4 	movhi	r5,131
  801504:	294bad04 	addi	r5,r5,11956
  801508:	018001c4 	movi	r6,7
  80150c:	01c00d84 	movi	r7,54
  801510:	082c8c40 	call	82c8c4 <alt_up_char_buffer_string>
	alt_up_char_buffer_string(char_buffer, temp, 8, 54);
  801514:	89000017 	ldw	r4,0(r17)
  801518:	d80b883a 	mov	r5,sp
  80151c:	01800204 	movi	r6,8
  801520:	01c00d84 	movi	r7,54
  801524:	082c8c40 	call	82c8c4 <alt_up_char_buffer_string>
	if (mouse->frame->currentPanel != 1){
		syncStop();
		printf("Stop button is clicked\n");
		updateVolumeValue(db.curr_song_id);
	}
}
  801528:	dfc00317 	ldw	ra,12(sp)
  80152c:	dc400217 	ldw	r17,8(sp)
  801530:	dc000117 	ldw	r16,4(sp)
  801534:	dec00404 	addi	sp,sp,16
  801538:	f800283a 	ret
	draw(getXActionBtn(this->type), getYActionBtn(this->type), this->stats[stats_index]);
}

void updateVolumeValue(int song_id){
	char temp[4];
	if (song_id == 0){
  80153c:	8005883a 	mov	r2,r16
  801540:	003fe706 	br	8014e0 <stopButtonCollide+0x60>

00801544 <pauseButtonCollide>:
		}
	}
}

void pauseButtonCollide(struct Button* this){
	if (mouse->frame->currentPanel != 1){
  801544:	00802134 	movhi	r2,132
  801548:	108a3a04 	addi	r2,r2,10472
  80154c:	11000017 	ldw	r4,0(r2)
			updateVolumeValue(db.curr_song_id);
		}
	}
}

void pauseButtonCollide(struct Button* this){
  801550:	defffb04 	addi	sp,sp,-20
  801554:	dc400215 	stw	r17,8(sp)
	if (mouse->frame->currentPanel != 1){
  801558:	20c00317 	ldw	r3,12(r4)
  80155c:	04400044 	movi	r17,1
			updateVolumeValue(db.curr_song_id);
		}
	}
}

void pauseButtonCollide(struct Button* this){
  801560:	dc800315 	stw	r18,12(sp)
	if (mouse->frame->currentPanel != 1){
  801564:	18800417 	ldw	r2,16(r3)
			updateVolumeValue(db.curr_song_id);
		}
	}
}

void pauseButtonCollide(struct Button* this){
  801568:	dc000115 	stw	r16,4(sp)
  80156c:	dfc00415 	stw	ra,16(sp)
	if (mouse->frame->currentPanel != 1){
		syncPause(db.curr_song_id);
  801570:	04002134 	movhi	r16,132
  801574:	840a6204 	addi	r16,r16,10632
	if (song_id == 0){
		song_id = 1;
	}
	memset(temp, 0 , sizeof(temp)/sizeof(temp[0]));
	sprintf(temp, "%d", db.songs[song_id]->volume);
	alt_up_char_buffer_string(char_buffer, "                    ", 7, 54);
  801578:	04802134 	movhi	r18,132
  80157c:	948a3704 	addi	r18,r18,10460
		}
	}
}

void pauseButtonCollide(struct Button* this){
	if (mouse->frame->currentPanel != 1){
  801580:	14401c26 	beq	r2,r17,8015f4 <pauseButtonCollide+0xb0>
		syncPause(db.curr_song_id);
  801584:	81000017 	ldw	r4,0(r16)
  801588:	08033ec0 	call	8033ec <syncPause>
		printf("Pause button is clicked.\n");
  80158c:	010020f4 	movhi	r4,131
  801590:	210be904 	addi	r4,r4,12196
  801594:	08221800 	call	822180 <puts>
		updateVolumeValue(db.curr_song_id);
  801598:	80800017 	ldw	r2,0(r16)
	char temp[4];
	if (song_id == 0){
		song_id = 1;
	}
	memset(temp, 0 , sizeof(temp)/sizeof(temp[0]));
	sprintf(temp, "%d", db.songs[song_id]->volume);
  80159c:	014020f4 	movhi	r5,131
  8015a0:	294bac04 	addi	r5,r5,11952
  8015a4:	d809883a 	mov	r4,sp
	draw(getXActionBtn(this->type), getYActionBtn(this->type), this->stats[stats_index]);
}

void updateVolumeValue(int song_id){
	char temp[4];
	if (song_id == 0){
  8015a8:	10001826 	beq	r2,zero,80160c <pauseButtonCollide+0xc8>
		song_id = 1;
	}
	memset(temp, 0 , sizeof(temp)/sizeof(temp[0]));
	sprintf(temp, "%d", db.songs[song_id]->volume);
  8015ac:	1085883a 	add	r2,r2,r2
  8015b0:	1085883a 	add	r2,r2,r2
  8015b4:	1405883a 	add	r2,r2,r16
  8015b8:	10c03617 	ldw	r3,216(r2)
void updateVolumeValue(int song_id){
	char temp[4];
	if (song_id == 0){
		song_id = 1;
	}
	memset(temp, 0 , sizeof(temp)/sizeof(temp[0]));
  8015bc:	d8000015 	stw	zero,0(sp)
	sprintf(temp, "%d", db.songs[song_id]->volume);
  8015c0:	19800717 	ldw	r6,28(r3)
  8015c4:	0822b640 	call	822b64 <sprintf>
	alt_up_char_buffer_string(char_buffer, "                    ", 7, 54);
  8015c8:	91000017 	ldw	r4,0(r18)
  8015cc:	014020f4 	movhi	r5,131
  8015d0:	294bad04 	addi	r5,r5,11956
  8015d4:	018001c4 	movi	r6,7
  8015d8:	01c00d84 	movi	r7,54
  8015dc:	082c8c40 	call	82c8c4 <alt_up_char_buffer_string>
	alt_up_char_buffer_string(char_buffer, temp, 8, 54);
  8015e0:	91000017 	ldw	r4,0(r18)
  8015e4:	d80b883a 	mov	r5,sp
  8015e8:	01800204 	movi	r6,8
  8015ec:	01c00d84 	movi	r7,54
  8015f0:	082c8c40 	call	82c8c4 <alt_up_char_buffer_string>
	if (mouse->frame->currentPanel != 1){
		syncPause(db.curr_song_id);
		printf("Pause button is clicked.\n");
		updateVolumeValue(db.curr_song_id);
	}
}
  8015f4:	dfc00417 	ldw	ra,16(sp)
  8015f8:	dc800317 	ldw	r18,12(sp)
  8015fc:	dc400217 	ldw	r17,8(sp)
  801600:	dc000117 	ldw	r16,4(sp)
  801604:	dec00504 	addi	sp,sp,20
  801608:	f800283a 	ret
	draw(getXActionBtn(this->type), getYActionBtn(this->type), this->stats[stats_index]);
}

void updateVolumeValue(int song_id){
	char temp[4];
	if (song_id == 0){
  80160c:	8805883a 	mov	r2,r17
  801610:	003fe606 	br	8015ac <pauseButtonCollide+0x68>

00801614 <playSongsFromSongPanel>:
}

/**
 * Highlight + play song from All Songs Panel only.
 */
void playSongsFromSongPanel(int song_id, int vol, int pos){
  801614:	defff904 	addi	sp,sp,-28
  801618:	dfc00615 	stw	ra,24(sp)
  80161c:	dd000515 	stw	r20,20(sp)
  801620:	dcc00415 	stw	r19,16(sp)
  801624:	2029883a 	mov	r20,r4
  801628:	3027883a 	mov	r19,r6
  80162c:	dc400215 	stw	r17,8(sp)
  801630:	dc800315 	stw	r18,12(sp)
  801634:	2823883a 	mov	r17,r5
  801638:	dc000115 	stw	r16,4(sp)
	// since up and down is not implemented yet,
	// don't do anything for song_id > 14
	syncStop();
  80163c:	08033a00 	call	8033a0 <syncStop>
	syncSelectList(0);
  801640:	0009883a 	mov	r4,zero
  801644:	08031f40 	call	8031f4 <syncSelectList>
	syncPlay(song_id, vol, pos);
  801648:	880b883a 	mov	r5,r17
  80164c:	a009883a 	mov	r4,r20
  801650:	980d883a 	mov	r6,r19
  801654:	08034740 	call	803474 <syncPlay>

struct Button* querySongButtonFromID(int song_id){
	int i = 1;
	// don't do anything since up and down is not
	// implemented yet
	if (song_id > 14){
  801658:	00800384 	movi	r2,14
  80165c:	15001616 	blt	r2,r20,8016b8 <playSongsFromSongPanel+0xa4>
		return NULL;
	}
	for (i = 1; i < mouse->frame->elements[2]->button_size; i++){
  801660:	00802134 	movhi	r2,132
  801664:	108a3a04 	addi	r2,r2,10472
  801668:	10c00017 	ldw	r3,0(r2)
  80166c:	01000044 	movi	r4,1
  801670:	1a400317 	ldw	r9,12(r3)
  801674:	48800017 	ldw	r2,0(r9)
  801678:	10800217 	ldw	r2,8(r2)
  80167c:	11800317 	ldw	r6,12(r2)
  801680:	21800d0e 	bge	r4,r6,8016b8 <playSongsFromSongPanel+0xa4>
		if (mouse->frame->elements[2]->buttons[i]->id == song_id){
  801684:	11c00117 	ldw	r7,4(r2)
  801688:	3c000117 	ldw	r16,4(r7)
  80168c:	82000317 	ldw	r8,12(r16)
  801690:	a2003026 	beq	r20,r8,801754 <playSongsFromSongPanel+0x140>
  801694:	200b883a 	mov	r5,r4
  801698:	3809883a 	mov	r4,r7
  80169c:	00000406 	br	8016b0 <playSongsFromSongPanel+0x9c>
  8016a0:	20c00217 	ldw	r3,8(r4)
  8016a4:	21000104 	addi	r4,r4,4
  8016a8:	18800317 	ldw	r2,12(r3)
  8016ac:	a0802926 	beq	r20,r2,801754 <playSongsFromSongPanel+0x140>
	// don't do anything since up and down is not
	// implemented yet
	if (song_id > 14){
		return NULL;
	}
	for (i = 1; i < mouse->frame->elements[2]->button_size; i++){
  8016b0:	29400044 	addi	r5,r5,1
  8016b4:	317ffa1e 	bne	r6,r5,8016a0 <playSongsFromSongPanel+0x8c>
	syncSelectList(0);
	syncPlay(song_id, vol, pos);
	if (querySongButtonFromID(song_id) != NULL && mouse->frame->currentPanel == 0){
		highlightButton(querySongButtonFromID(song_id));
	} else {
		printf("Query returns NULL song ID > 14\n");
  8016b8:	010020f4 	movhi	r4,131
  8016bc:	210bf004 	addi	r4,r4,12224
  8016c0:	08221800 	call	822180 <puts>
	draw(getXActionBtn(this->type), getYActionBtn(this->type), this->stats[stats_index]);
}

void updateVolumeValue(int song_id){
	char temp[4];
	if (song_id == 0){
  8016c4:	a0002126 	beq	r20,zero,80174c <playSongsFromSongPanel+0x138>
		song_id = 1;
	}
	memset(temp, 0 , sizeof(temp)/sizeof(temp[0]));
	sprintf(temp, "%d", db.songs[song_id]->volume);
  8016c8:	a505883a 	add	r2,r20,r20
  8016cc:	00c02134 	movhi	r3,132
  8016d0:	18ca6204 	addi	r3,r3,10632
  8016d4:	1085883a 	add	r2,r2,r2
  8016d8:	10c5883a 	add	r2,r2,r3
  8016dc:	11403617 	ldw	r5,216(r2)
void updateVolumeValue(int song_id){
	char temp[4];
	if (song_id == 0){
		song_id = 1;
	}
	memset(temp, 0 , sizeof(temp)/sizeof(temp[0]));
  8016e0:	d8000015 	stw	zero,0(sp)
	sprintf(temp, "%d", db.songs[song_id]->volume);
  8016e4:	d809883a 	mov	r4,sp
  8016e8:	29800717 	ldw	r6,28(r5)
	alt_up_char_buffer_string(char_buffer, "                    ", 7, 54);
  8016ec:	04002134 	movhi	r16,132
  8016f0:	840a3704 	addi	r16,r16,10460
	char temp[4];
	if (song_id == 0){
		song_id = 1;
	}
	memset(temp, 0 , sizeof(temp)/sizeof(temp[0]));
	sprintf(temp, "%d", db.songs[song_id]->volume);
  8016f4:	014020f4 	movhi	r5,131
  8016f8:	294bac04 	addi	r5,r5,11952
  8016fc:	0822b640 	call	822b64 <sprintf>
	alt_up_char_buffer_string(char_buffer, "                    ", 7, 54);
  801700:	81000017 	ldw	r4,0(r16)
  801704:	014020f4 	movhi	r5,131
  801708:	294bad04 	addi	r5,r5,11956
  80170c:	018001c4 	movi	r6,7
  801710:	01c00d84 	movi	r7,54
  801714:	082c8c40 	call	82c8c4 <alt_up_char_buffer_string>
	alt_up_char_buffer_string(char_buffer, temp, 8, 54);
  801718:	81000017 	ldw	r4,0(r16)
  80171c:	d80b883a 	mov	r5,sp
  801720:	01800204 	movi	r6,8
  801724:	01c00d84 	movi	r7,54
  801728:	082c8c40 	call	82c8c4 <alt_up_char_buffer_string>
		highlightButton(querySongButtonFromID(song_id));
	} else {
		printf("Query returns NULL song ID > 14\n");
	}
	updateVolumeValue(song_id);
}
  80172c:	dfc00617 	ldw	ra,24(sp)
  801730:	dd000517 	ldw	r20,20(sp)
  801734:	dcc00417 	ldw	r19,16(sp)
  801738:	dc800317 	ldw	r18,12(sp)
  80173c:	dc400217 	ldw	r17,8(sp)
  801740:	dc000117 	ldw	r16,4(sp)
  801744:	dec00704 	addi	sp,sp,28
  801748:	f800283a 	ret
	draw(getXActionBtn(this->type), getYActionBtn(this->type), this->stats[stats_index]);
}

void updateVolumeValue(int song_id){
	char temp[4];
	if (song_id == 0){
  80174c:	05000044 	movi	r20,1
  801750:	003fdd06 	br	8016c8 <playSongsFromSongPanel+0xb4>
	// since up and down is not implemented yet,
	// don't do anything for song_id > 14
	syncStop();
	syncSelectList(0);
	syncPlay(song_id, vol, pos);
	if (querySongButtonFromID(song_id) != NULL && mouse->frame->currentPanel == 0){
  801754:	48800417 	ldw	r2,16(r9)
  801758:	103fd71e 	bne	r2,zero,8016b8 <playSongsFromSongPanel+0xa4>
	// implemented yet
	if (song_id > 14){
		return NULL;
	}
	for (i = 1; i < mouse->frame->elements[2]->button_size; i++){
		if (mouse->frame->elements[2]->buttons[i]->id == song_id){
  80175c:	a2000a26 	beq	r20,r8,801788 <playSongsFromSongPanel+0x174>
  801760:	3809883a 	mov	r4,r7
  801764:	00c00044 	movi	r3,1
  801768:	00000406 	br	80177c <playSongsFromSongPanel+0x168>
  80176c:	24000217 	ldw	r16,8(r4)
  801770:	21000104 	addi	r4,r4,4
  801774:	80800317 	ldw	r2,12(r16)
  801778:	a0800326 	beq	r20,r2,801788 <playSongsFromSongPanel+0x174>
	// don't do anything since up and down is not
	// implemented yet
	if (song_id > 14){
		return NULL;
	}
	for (i = 1; i < mouse->frame->elements[2]->button_size; i++){
  80177c:	18c00044 	addi	r3,r3,1
  801780:	30fffa1e 	bne	r6,r3,80176c <playSongsFromSongPanel+0x158>
  801784:	0021883a 	mov	r16,zero
	}

}

void highlightButton(struct Button* this){
	draw_notransparent(241, 13, this->Panel->bg_image);
  801788:	80800117 	ldw	r2,4(r16)
  80178c:	01003c44 	movi	r4,241
  801790:	01400344 	movi	r5,13
  801794:	11800617 	ldw	r6,24(r2)
  801798:	08097380 	call	809738 <draw_notransparent>
	int i = 0;
	int y = 4* this->y_pos - 2;
	int x = 4* this->x_pos - 3;
  80179c:	84400717 	ldw	r17,28(r16)
}

void highlightButton(struct Button* this){
	draw_notransparent(241, 13, this->Panel->bg_image);
	int i = 0;
	int y = 4* this->y_pos - 2;
  8017a0:	84800817 	ldw	r18,32(r16)
	int x = 4* this->x_pos - 3;
	for (i = 0; i < 10; i++, y++){
		drawHorizontalLine(x, y, 76, 0xe711ce);
  8017a4:	01801304 	movi	r6,76

void highlightButton(struct Button* this){
	draw_notransparent(241, 13, this->Panel->bg_image);
	int i = 0;
	int y = 4* this->y_pos - 2;
	int x = 4* this->x_pos - 3;
  8017a8:	8c63883a 	add	r17,r17,r17
}

void highlightButton(struct Button* this){
	draw_notransparent(241, 13, this->Panel->bg_image);
	int i = 0;
	int y = 4* this->y_pos - 2;
  8017ac:	94a5883a 	add	r18,r18,r18
	int x = 4* this->x_pos - 3;
  8017b0:	8c63883a 	add	r17,r17,r17
}

void highlightButton(struct Button* this){
	draw_notransparent(241, 13, this->Panel->bg_image);
	int i = 0;
	int y = 4* this->y_pos - 2;
  8017b4:	94a5883a 	add	r18,r18,r18
	int x = 4* this->x_pos - 3;
  8017b8:	8c7fff44 	addi	r17,r17,-3
	for (i = 0; i < 10; i++, y++){
		drawHorizontalLine(x, y, 76, 0xe711ce);
  8017bc:	917fff84 	addi	r5,r18,-2
  8017c0:	8809883a 	mov	r4,r17
  8017c4:	01c039f4 	movhi	r7,231
  8017c8:	39c47384 	addi	r7,r7,4558
  8017cc:	0809e040 	call	809e04 <drawHorizontalLine>
  8017d0:	8809883a 	mov	r4,r17
  8017d4:	917fffc4 	addi	r5,r18,-1
  8017d8:	01801304 	movi	r6,76
  8017dc:	01c039f4 	movhi	r7,231
  8017e0:	39c47384 	addi	r7,r7,4558
  8017e4:	0809e040 	call	809e04 <drawHorizontalLine>
  8017e8:	8809883a 	mov	r4,r17
  8017ec:	900b883a 	mov	r5,r18
  8017f0:	01801304 	movi	r6,76
  8017f4:	01c039f4 	movhi	r7,231
  8017f8:	39c47384 	addi	r7,r7,4558
  8017fc:	0809e040 	call	809e04 <drawHorizontalLine>
  801800:	8809883a 	mov	r4,r17
  801804:	91400044 	addi	r5,r18,1
  801808:	01801304 	movi	r6,76
  80180c:	01c039f4 	movhi	r7,231
  801810:	39c47384 	addi	r7,r7,4558
  801814:	0809e040 	call	809e04 <drawHorizontalLine>
  801818:	8809883a 	mov	r4,r17
  80181c:	91400084 	addi	r5,r18,2
  801820:	01801304 	movi	r6,76
  801824:	01c039f4 	movhi	r7,231
  801828:	39c47384 	addi	r7,r7,4558
  80182c:	0809e040 	call	809e04 <drawHorizontalLine>
  801830:	8809883a 	mov	r4,r17
  801834:	914000c4 	addi	r5,r18,3
  801838:	01801304 	movi	r6,76
  80183c:	01c039f4 	movhi	r7,231
  801840:	39c47384 	addi	r7,r7,4558
  801844:	0809e040 	call	809e04 <drawHorizontalLine>
  801848:	8809883a 	mov	r4,r17
  80184c:	91400104 	addi	r5,r18,4
  801850:	01801304 	movi	r6,76
  801854:	01c039f4 	movhi	r7,231
  801858:	39c47384 	addi	r7,r7,4558
  80185c:	0809e040 	call	809e04 <drawHorizontalLine>
  801860:	8809883a 	mov	r4,r17
  801864:	91400144 	addi	r5,r18,5
  801868:	01801304 	movi	r6,76
  80186c:	01c039f4 	movhi	r7,231
  801870:	39c47384 	addi	r7,r7,4558
  801874:	0809e040 	call	809e04 <drawHorizontalLine>
  801878:	8809883a 	mov	r4,r17
  80187c:	91400184 	addi	r5,r18,6
  801880:	01801304 	movi	r6,76
  801884:	01c039f4 	movhi	r7,231
  801888:	39c47384 	addi	r7,r7,4558
  80188c:	0809e040 	call	809e04 <drawHorizontalLine>
  801890:	8809883a 	mov	r4,r17
  801894:	914001c4 	addi	r5,r18,7
  801898:	01801304 	movi	r6,76
  80189c:	01c039f4 	movhi	r7,231
  8018a0:	39c47384 	addi	r7,r7,4558
  8018a4:	0809e040 	call	809e04 <drawHorizontalLine>
  8018a8:	003f8606 	br	8016c4 <playSongsFromSongPanel+0xb0>

008018ac <songButtonCollide>:
void songButtonCollide(struct Button* this){
	//syncStop();
	//syncPlay(this->id, db.songs[this->id]->volume, 0);
	//highlightButton(this);
	//updateVolumeValue(this->id);
	if (mouse->frame->currentPanel == 0){
  8018ac:	00802134 	movhi	r2,132
  8018b0:	108a3a04 	addi	r2,r2,10472
  8018b4:	10c00017 	ldw	r3,0(r2)

void dummyCollide(struct Button* this){
	printf("ERROR:Dummy Collide is called.\n");
}

void songButtonCollide(struct Button* this){
  8018b8:	defffb04 	addi	sp,sp,-20
  8018bc:	dc000115 	stw	r16,4(sp)
  8018c0:	2021883a 	mov	r16,r4
	//syncStop();
	//syncPlay(this->id, db.songs[this->id]->volume, 0);
	//highlightButton(this);
	//updateVolumeValue(this->id);
	if (mouse->frame->currentPanel == 0){
  8018c4:	19000317 	ldw	r4,12(r3)

void dummyCollide(struct Button* this){
	printf("ERROR:Dummy Collide is called.\n");
}

void songButtonCollide(struct Button* this){
  8018c8:	dfc00415 	stw	ra,16(sp)
  8018cc:	dc800315 	stw	r18,12(sp)
	//syncStop();
	//syncPlay(this->id, db.songs[this->id]->volume, 0);
	//highlightButton(this);
	//updateVolumeValue(this->id);
	if (mouse->frame->currentPanel == 0){
  8018d0:	20c00417 	ldw	r3,16(r4)

void dummyCollide(struct Button* this){
	printf("ERROR:Dummy Collide is called.\n");
}

void songButtonCollide(struct Button* this){
  8018d4:	dc400215 	stw	r17,8(sp)
	//syncStop();
	//syncPlay(this->id, db.songs[this->id]->volume, 0);
	//highlightButton(this);
	//updateVolumeValue(this->id);
	if (mouse->frame->currentPanel == 0){
  8018d8:	18000c26 	beq	r3,zero,80190c <songButtonCollide+0x60>
		playSongsFromSongPanel(this->id, db.songs[this->id]->volume, db.songs[this->id]->pos);
	} else if (mouse->frame->currentPanel == 2){
  8018dc:	00800084 	movi	r2,2
		db.curr_playlist_id = mouse->frame->elements[3]->currentPlaylist;
  8018e0:	04402134 	movhi	r17,132
  8018e4:	8c4a6204 	addi	r17,r17,10632
	if (song_id == 0){
		song_id = 1;
	}
	memset(temp, 0 , sizeof(temp)/sizeof(temp[0]));
	sprintf(temp, "%d", db.songs[song_id]->volume);
	alt_up_char_buffer_string(char_buffer, "                    ", 7, 54);
  8018e8:	04802134 	movhi	r18,132
  8018ec:	948a3704 	addi	r18,r18,10460
	//syncPlay(this->id, db.songs[this->id]->volume, 0);
	//highlightButton(this);
	//updateVolumeValue(this->id);
	if (mouse->frame->currentPanel == 0){
		playSongsFromSongPanel(this->id, db.songs[this->id]->volume, db.songs[this->id]->pos);
	} else if (mouse->frame->currentPanel == 2){
  8018f0:	18801626 	beq	r3,r2,80194c <songButtonCollide+0xa0>
		syncStop();
		syncPlay(this->id, db.songs[this->id]->volume, 0);
		updateVolumeValue(this->id);
	}

}
  8018f4:	dfc00417 	ldw	ra,16(sp)
  8018f8:	dc800317 	ldw	r18,12(sp)
  8018fc:	dc400217 	ldw	r17,8(sp)
  801900:	dc000117 	ldw	r16,4(sp)
  801904:	dec00504 	addi	sp,sp,20
  801908:	f800283a 	ret
	//syncStop();
	//syncPlay(this->id, db.songs[this->id]->volume, 0);
	//highlightButton(this);
	//updateVolumeValue(this->id);
	if (mouse->frame->currentPanel == 0){
		playSongsFromSongPanel(this->id, db.songs[this->id]->volume, db.songs[this->id]->pos);
  80190c:	81000317 	ldw	r4,12(r16)
  801910:	00802134 	movhi	r2,132
  801914:	108a6204 	addi	r2,r2,10632
  801918:	2107883a 	add	r3,r4,r4
  80191c:	18c7883a 	add	r3,r3,r3
  801920:	1887883a 	add	r3,r3,r2
  801924:	18803617 	ldw	r2,216(r3)
  801928:	11800817 	ldw	r6,32(r2)
  80192c:	11400717 	ldw	r5,28(r2)
  801930:	08016140 	call	801614 <playSongsFromSongPanel>
		syncStop();
		syncPlay(this->id, db.songs[this->id]->volume, 0);
		updateVolumeValue(this->id);
	}

}
  801934:	dfc00417 	ldw	ra,16(sp)
  801938:	dc800317 	ldw	r18,12(sp)
  80193c:	dc400217 	ldw	r17,8(sp)
  801940:	dc000117 	ldw	r16,4(sp)
  801944:	dec00504 	addi	sp,sp,20
  801948:	f800283a 	ret
	//highlightButton(this);
	//updateVolumeValue(this->id);
	if (mouse->frame->currentPanel == 0){
		playSongsFromSongPanel(this->id, db.songs[this->id]->volume, db.songs[this->id]->pos);
	} else if (mouse->frame->currentPanel == 2){
		db.curr_playlist_id = mouse->frame->elements[3]->currentPlaylist;
  80194c:	20800017 	ldw	r2,0(r4)
  801950:	10c00317 	ldw	r3,12(r2)
  801954:	19000517 	ldw	r4,20(r3)
  801958:	89003415 	stw	r4,208(r17)
		syncStop();
  80195c:	08033a00 	call	8033a0 <syncStop>
		syncPlay(this->id, db.songs[this->id]->volume, 0);
  801960:	81000317 	ldw	r4,12(r16)
  801964:	000d883a 	mov	r6,zero
  801968:	2105883a 	add	r2,r4,r4
  80196c:	1085883a 	add	r2,r2,r2
  801970:	1445883a 	add	r2,r2,r17
  801974:	10c03617 	ldw	r3,216(r2)
  801978:	19400717 	ldw	r5,28(r3)
  80197c:	08034740 	call	803474 <syncPlay>
		updateVolumeValue(this->id);
  801980:	80800317 	ldw	r2,12(r16)
	char temp[4];
	if (song_id == 0){
		song_id = 1;
	}
	memset(temp, 0 , sizeof(temp)/sizeof(temp[0]));
	sprintf(temp, "%d", db.songs[song_id]->volume);
  801984:	d809883a 	mov	r4,sp
  801988:	014020f4 	movhi	r5,131
  80198c:	294bac04 	addi	r5,r5,11952
	draw(getXActionBtn(this->type), getYActionBtn(this->type), this->stats[stats_index]);
}

void updateVolumeValue(int song_id){
	char temp[4];
	if (song_id == 0){
  801990:	1000011e 	bne	r2,zero,801998 <songButtonCollide+0xec>
  801994:	00800044 	movi	r2,1
		song_id = 1;
	}
	memset(temp, 0 , sizeof(temp)/sizeof(temp[0]));
	sprintf(temp, "%d", db.songs[song_id]->volume);
  801998:	1085883a 	add	r2,r2,r2
  80199c:	1085883a 	add	r2,r2,r2
  8019a0:	1445883a 	add	r2,r2,r17
  8019a4:	10c03617 	ldw	r3,216(r2)
void updateVolumeValue(int song_id){
	char temp[4];
	if (song_id == 0){
		song_id = 1;
	}
	memset(temp, 0 , sizeof(temp)/sizeof(temp[0]));
  8019a8:	d8000015 	stw	zero,0(sp)
	sprintf(temp, "%d", db.songs[song_id]->volume);
  8019ac:	19800717 	ldw	r6,28(r3)
  8019b0:	0822b640 	call	822b64 <sprintf>
	alt_up_char_buffer_string(char_buffer, "                    ", 7, 54);
  8019b4:	91000017 	ldw	r4,0(r18)
  8019b8:	014020f4 	movhi	r5,131
  8019bc:	294bad04 	addi	r5,r5,11956
  8019c0:	018001c4 	movi	r6,7
  8019c4:	01c00d84 	movi	r7,54
  8019c8:	082c8c40 	call	82c8c4 <alt_up_char_buffer_string>
	alt_up_char_buffer_string(char_buffer, temp, 8, 54);
  8019cc:	91000017 	ldw	r4,0(r18)
  8019d0:	d80b883a 	mov	r5,sp
  8019d4:	01800204 	movi	r6,8
  8019d8:	01c00d84 	movi	r7,54
  8019dc:	082c8c40 	call	82c8c4 <alt_up_char_buffer_string>
		syncStop();
		syncPlay(this->id, db.songs[this->id]->volume, 0);
		updateVolumeValue(this->id);
	}

}
  8019e0:	dfc00417 	ldw	ra,16(sp)
  8019e4:	dc800317 	ldw	r18,12(sp)
  8019e8:	dc400217 	ldw	r17,8(sp)
  8019ec:	dc000117 	ldw	r16,4(sp)
  8019f0:	dec00504 	addi	sp,sp,20
  8019f4:	f800283a 	ret

008019f8 <playButtonCollide>:
		drawHorizontalLine(this->x_pos, y, this->range->width, 0xffffff);
	}
}

void playButtonCollide(struct Button* this){
	if (mouse->frame->currentPanel == 0 || (mouse->frame->currentPanel == 2 && db.playlists[db.curr_playlist_id]->num_of_songs > 0)){
  8019f8:	00802134 	movhi	r2,132
  8019fc:	108a3a04 	addi	r2,r2,10472
  801a00:	10c00017 	ldw	r3,0(r2)
	for (i = 0; i < this->range->height; i++, y++){
		drawHorizontalLine(this->x_pos, y, this->range->width, 0xffffff);
	}
}

void playButtonCollide(struct Button* this){
  801a04:	defff804 	addi	sp,sp,-32
  801a08:	dc800315 	stw	r18,12(sp)
	if (mouse->frame->currentPanel == 0 || (mouse->frame->currentPanel == 2 && db.playlists[db.curr_playlist_id]->num_of_songs > 0)){
  801a0c:	18800317 	ldw	r2,12(r3)
	for (i = 0; i < this->range->height; i++, y++){
		drawHorizontalLine(this->x_pos, y, this->range->width, 0xffffff);
	}
}

void playButtonCollide(struct Button* this){
  801a10:	dfc00715 	stw	ra,28(sp)
  801a14:	dd400615 	stw	r21,24(sp)
	if (mouse->frame->currentPanel == 0 || (mouse->frame->currentPanel == 2 && db.playlists[db.curr_playlist_id]->num_of_songs > 0)){
  801a18:	10c00417 	ldw	r3,16(r2)
	for (i = 0; i < this->range->height; i++, y++){
		drawHorizontalLine(this->x_pos, y, this->range->width, 0xffffff);
	}
}

void playButtonCollide(struct Button* this){
  801a1c:	dd000515 	stw	r20,20(sp)
  801a20:	dcc00415 	stw	r19,16(sp)
  801a24:	dc400215 	stw	r17,8(sp)
  801a28:	dc000115 	stw	r16,4(sp)
  801a2c:	2025883a 	mov	r18,r4
	if (mouse->frame->currentPanel == 0 || (mouse->frame->currentPanel == 2 && db.playlists[db.curr_playlist_id]->num_of_songs > 0)){
  801a30:	18000b26 	beq	r3,zero,801a60 <playButtonCollide+0x68>
  801a34:	00800084 	movi	r2,2
  801a38:	18808b26 	beq	r3,r2,801c68 <playButtonCollide+0x270>
			highlightButton(this->Panel->mainFrame->elements[2]->buttons[db.curr_song_id]);
			printf("Play button is clicked\n");
			updateVolumeValue(db.curr_song_id);
		}
	}
}
  801a3c:	dfc00717 	ldw	ra,28(sp)
  801a40:	dd400617 	ldw	r21,24(sp)
  801a44:	dd000517 	ldw	r20,20(sp)
  801a48:	dcc00417 	ldw	r19,16(sp)
  801a4c:	dc800317 	ldw	r18,12(sp)
  801a50:	dc400217 	ldw	r17,8(sp)
  801a54:	dc000117 	ldw	r16,4(sp)
  801a58:	dec00804 	addi	sp,sp,32
  801a5c:	f800283a 	ret
  801a60:	01402134 	movhi	r5,132
  801a64:	294a6204 	addi	r5,r5,10632
	}
}

void playButtonCollide(struct Button* this){
	if (mouse->frame->currentPanel == 0 || (mouse->frame->currentPanel == 2 && db.playlists[db.curr_playlist_id]->num_of_songs > 0)){
		if (db.curr_song_id == 0 || db.songs[db.curr_song_id]->sound == NULL){
  801a68:	2c000017 	ldw	r16,0(r5)
  801a6c:	05402134 	movhi	r21,132
  801a70:	ad4a6204 	addi	r21,r21,10632
  801a74:	80008926 	beq	r16,zero,801c9c <playButtonCollide+0x2a4>
  801a78:	8405883a 	add	r2,r16,r16
  801a7c:	1085883a 	add	r2,r2,r2
  801a80:	1545883a 	add	r2,r2,r21
  801a84:	10c03617 	ldw	r3,216(r2)
  801a88:	18800017 	ldw	r2,0(r3)
  801a8c:	10008326 	beq	r2,zero,801c9c <playButtonCollide+0x2a4>
			syncPlay(1, db.songs[1]->volume, 0);
			highlightButton(this->Panel->mainFrame->elements[2]->buttons[1]);
			printf("Play button is clicked\n");
			updateVolumeValue(1);
		} else {
			syncPlay(db.curr_song_id, db.songs[db.curr_song_id]->volume, convertToMS(db.songs[db.curr_song_id]->sound->position));
  801a90:	11000317 	ldw	r4,12(r2)
  801a94:	1c400717 	ldw	r17,28(r3)
  801a98:	08196d00 	call	8196d0 <convertToMS>
  801a9c:	100d883a 	mov	r6,r2
  801aa0:	8009883a 	mov	r4,r16
  801aa4:	880b883a 	mov	r5,r17
  801aa8:	08034740 	call	803474 <syncPlay>
			highlightButton(this->Panel->mainFrame->elements[2]->buttons[db.curr_song_id]);
  801aac:	90c00117 	ldw	r3,4(r18)
  801ab0:	a8800017 	ldw	r2,0(r21)
	}

}

void highlightButton(struct Button* this){
	draw_notransparent(241, 13, this->Panel->bg_image);
  801ab4:	01003c44 	movi	r4,241
			highlightButton(this->Panel->mainFrame->elements[2]->buttons[1]);
			printf("Play button is clicked\n");
			updateVolumeValue(1);
		} else {
			syncPlay(db.curr_song_id, db.songs[db.curr_song_id]->volume, convertToMS(db.songs[db.curr_song_id]->sound->position));
			highlightButton(this->Panel->mainFrame->elements[2]->buttons[db.curr_song_id]);
  801ab8:	19400717 	ldw	r5,28(r3)
  801abc:	1085883a 	add	r2,r2,r2
  801ac0:	1085883a 	add	r2,r2,r2
  801ac4:	29c00017 	ldw	r7,0(r5)
	}

}

void highlightButton(struct Button* this){
	draw_notransparent(241, 13, this->Panel->bg_image);
  801ac8:	01400344 	movi	r5,13
			highlightButton(this->Panel->mainFrame->elements[2]->buttons[1]);
			printf("Play button is clicked\n");
			updateVolumeValue(1);
		} else {
			syncPlay(db.curr_song_id, db.songs[db.curr_song_id]->volume, convertToMS(db.songs[db.curr_song_id]->sound->position));
			highlightButton(this->Panel->mainFrame->elements[2]->buttons[db.curr_song_id]);
  801acc:	38c00217 	ldw	r3,8(r7)
  801ad0:	19800117 	ldw	r6,4(r3)
  801ad4:	1185883a 	add	r2,r2,r6
  801ad8:	14000017 	ldw	r16,0(r2)
	}

}

void highlightButton(struct Button* this){
	draw_notransparent(241, 13, this->Panel->bg_image);
  801adc:	80c00117 	ldw	r3,4(r16)
  801ae0:	19800617 	ldw	r6,24(r3)
  801ae4:	08097380 	call	809738 <draw_notransparent>
	int i = 0;
	int y = 4* this->y_pos - 2;
	int x = 4* this->x_pos - 3;
  801ae8:	84800717 	ldw	r18,28(r16)
}

void highlightButton(struct Button* this){
	draw_notransparent(241, 13, this->Panel->bg_image);
	int i = 0;
	int y = 4* this->y_pos - 2;
  801aec:	84c00817 	ldw	r19,32(r16)
	int x = 4* this->x_pos - 3;
	for (i = 0; i < 10; i++, y++){
		drawHorizontalLine(x, y, 76, 0xe711ce);
  801af0:	01801304 	movi	r6,76

void highlightButton(struct Button* this){
	draw_notransparent(241, 13, this->Panel->bg_image);
	int i = 0;
	int y = 4* this->y_pos - 2;
	int x = 4* this->x_pos - 3;
  801af4:	94a5883a 	add	r18,r18,r18
}

void highlightButton(struct Button* this){
	draw_notransparent(241, 13, this->Panel->bg_image);
	int i = 0;
	int y = 4* this->y_pos - 2;
  801af8:	9ce7883a 	add	r19,r19,r19
	int x = 4* this->x_pos - 3;
  801afc:	94a5883a 	add	r18,r18,r18
}

void highlightButton(struct Button* this){
	draw_notransparent(241, 13, this->Panel->bg_image);
	int i = 0;
	int y = 4* this->y_pos - 2;
  801b00:	9ce7883a 	add	r19,r19,r19
	int x = 4* this->x_pos - 3;
  801b04:	94bfff44 	addi	r18,r18,-3
	for (i = 0; i < 10; i++, y++){
		drawHorizontalLine(x, y, 76, 0xe711ce);
  801b08:	997fff84 	addi	r5,r19,-2
  801b0c:	01c039f4 	movhi	r7,231
  801b10:	39c47384 	addi	r7,r7,4558
  801b14:	9009883a 	mov	r4,r18
  801b18:	0809e040 	call	809e04 <drawHorizontalLine>
  801b1c:	9009883a 	mov	r4,r18
  801b20:	01801304 	movi	r6,76
  801b24:	01c039f4 	movhi	r7,231
  801b28:	39c47384 	addi	r7,r7,4558
  801b2c:	997fffc4 	addi	r5,r19,-1
  801b30:	0809e040 	call	809e04 <drawHorizontalLine>
  801b34:	9009883a 	mov	r4,r18
  801b38:	980b883a 	mov	r5,r19
  801b3c:	01801304 	movi	r6,76
  801b40:	01c039f4 	movhi	r7,231
  801b44:	39c47384 	addi	r7,r7,4558
  801b48:	0809e040 	call	809e04 <drawHorizontalLine>
  801b4c:	9009883a 	mov	r4,r18
  801b50:	99400044 	addi	r5,r19,1
  801b54:	01801304 	movi	r6,76
  801b58:	01c039f4 	movhi	r7,231
  801b5c:	39c47384 	addi	r7,r7,4558
  801b60:	0809e040 	call	809e04 <drawHorizontalLine>
  801b64:	9009883a 	mov	r4,r18
  801b68:	99400084 	addi	r5,r19,2
  801b6c:	01801304 	movi	r6,76
  801b70:	01c039f4 	movhi	r7,231
  801b74:	39c47384 	addi	r7,r7,4558
  801b78:	0809e040 	call	809e04 <drawHorizontalLine>
  801b7c:	9009883a 	mov	r4,r18
  801b80:	994000c4 	addi	r5,r19,3
  801b84:	01801304 	movi	r6,76
  801b88:	01c039f4 	movhi	r7,231
  801b8c:	39c47384 	addi	r7,r7,4558
  801b90:	0809e040 	call	809e04 <drawHorizontalLine>
  801b94:	9009883a 	mov	r4,r18
  801b98:	99400104 	addi	r5,r19,4
  801b9c:	01801304 	movi	r6,76
  801ba0:	01c039f4 	movhi	r7,231
  801ba4:	39c47384 	addi	r7,r7,4558
  801ba8:	0809e040 	call	809e04 <drawHorizontalLine>
  801bac:	9009883a 	mov	r4,r18
  801bb0:	99400144 	addi	r5,r19,5
  801bb4:	01801304 	movi	r6,76
  801bb8:	01c039f4 	movhi	r7,231
  801bbc:	39c47384 	addi	r7,r7,4558
  801bc0:	0809e040 	call	809e04 <drawHorizontalLine>
  801bc4:	9009883a 	mov	r4,r18
  801bc8:	99400184 	addi	r5,r19,6
  801bcc:	01801304 	movi	r6,76
  801bd0:	01c039f4 	movhi	r7,231
  801bd4:	39c47384 	addi	r7,r7,4558
  801bd8:	0809e040 	call	809e04 <drawHorizontalLine>
  801bdc:	9009883a 	mov	r4,r18
  801be0:	994001c4 	addi	r5,r19,7
  801be4:	01801304 	movi	r6,76
  801be8:	01c039f4 	movhi	r7,231
  801bec:	39c47384 	addi	r7,r7,4558
  801bf0:	0809e040 	call	809e04 <drawHorizontalLine>
			printf("Play button is clicked\n");
			updateVolumeValue(1);
		} else {
			syncPlay(db.curr_song_id, db.songs[db.curr_song_id]->volume, convertToMS(db.songs[db.curr_song_id]->sound->position));
			highlightButton(this->Panel->mainFrame->elements[2]->buttons[db.curr_song_id]);
			printf("Play button is clicked\n");
  801bf4:	010020f4 	movhi	r4,131
  801bf8:	210bf804 	addi	r4,r4,12256
  801bfc:	08221800 	call	822180 <puts>
			updateVolumeValue(db.curr_song_id);
  801c00:	a8800017 	ldw	r2,0(r21)
	draw(getXActionBtn(this->type), getYActionBtn(this->type), this->stats[stats_index]);
}

void updateVolumeValue(int song_id){
	char temp[4];
	if (song_id == 0){
  801c04:	10009026 	beq	r2,zero,801e48 <playButtonCollide+0x450>
		song_id = 1;
	}
	memset(temp, 0 , sizeof(temp)/sizeof(temp[0]));
	sprintf(temp, "%d", db.songs[song_id]->volume);
  801c08:	1085883a 	add	r2,r2,r2
  801c0c:	1085883a 	add	r2,r2,r2
  801c10:	1545883a 	add	r2,r2,r21
  801c14:	10c03617 	ldw	r3,216(r2)
void updateVolumeValue(int song_id){
	char temp[4];
	if (song_id == 0){
		song_id = 1;
	}
	memset(temp, 0 , sizeof(temp)/sizeof(temp[0]));
  801c18:	d8000015 	stw	zero,0(sp)
	sprintf(temp, "%d", db.songs[song_id]->volume);
  801c1c:	d809883a 	mov	r4,sp
  801c20:	19800717 	ldw	r6,28(r3)
	alt_up_char_buffer_string(char_buffer, "                    ", 7, 54);
  801c24:	04002134 	movhi	r16,132
  801c28:	840a3704 	addi	r16,r16,10460
	char temp[4];
	if (song_id == 0){
		song_id = 1;
	}
	memset(temp, 0 , sizeof(temp)/sizeof(temp[0]));
	sprintf(temp, "%d", db.songs[song_id]->volume);
  801c2c:	014020f4 	movhi	r5,131
  801c30:	294bac04 	addi	r5,r5,11952
  801c34:	0822b640 	call	822b64 <sprintf>
	alt_up_char_buffer_string(char_buffer, "                    ", 7, 54);
  801c38:	81000017 	ldw	r4,0(r16)
  801c3c:	014020f4 	movhi	r5,131
  801c40:	294bad04 	addi	r5,r5,11956
  801c44:	018001c4 	movi	r6,7
  801c48:	01c00d84 	movi	r7,54
  801c4c:	082c8c40 	call	82c8c4 <alt_up_char_buffer_string>
	alt_up_char_buffer_string(char_buffer, temp, 8, 54);
  801c50:	81000017 	ldw	r4,0(r16)
  801c54:	d80b883a 	mov	r5,sp
  801c58:	01800204 	movi	r6,8
  801c5c:	01c00d84 	movi	r7,54
  801c60:	082c8c40 	call	82c8c4 <alt_up_char_buffer_string>
  801c64:	003f7506 	br	801a3c <playButtonCollide+0x44>
		drawHorizontalLine(this->x_pos, y, this->range->width, 0xffffff);
	}
}

void playButtonCollide(struct Button* this){
	if (mouse->frame->currentPanel == 0 || (mouse->frame->currentPanel == 2 && db.playlists[db.curr_playlist_id]->num_of_songs > 0)){
  801c68:	01402134 	movhi	r5,132
  801c6c:	294a6204 	addi	r5,r5,10632
  801c70:	28803417 	ldw	r2,208(r5)
  801c74:	1085883a 	add	r2,r2,r2
  801c78:	1085883a 	add	r2,r2,r2
  801c7c:	1145883a 	add	r2,r2,r5
  801c80:	10c00117 	ldw	r3,4(r2)
  801c84:	19001a17 	ldw	r4,104(r3)
  801c88:	013f6c0e 	bge	zero,r4,801a3c <playButtonCollide+0x44>
		if (db.curr_song_id == 0 || db.songs[db.curr_song_id]->sound == NULL){
  801c8c:	2c000017 	ldw	r16,0(r5)
  801c90:	05402134 	movhi	r21,132
  801c94:	ad4a6204 	addi	r21,r21,10632
  801c98:	803f771e 	bne	r16,zero,801a78 <playButtonCollide+0x80>
			syncPlay(1, db.songs[1]->volume, 0);
  801c9c:	a8803717 	ldw	r2,220(r21)
  801ca0:	01000044 	movi	r4,1
  801ca4:	000d883a 	mov	r6,zero
  801ca8:	11400717 	ldw	r5,28(r2)
	if (song_id == 0){
		song_id = 1;
	}
	memset(temp, 0 , sizeof(temp)/sizeof(temp[0]));
	sprintf(temp, "%d", db.songs[song_id]->volume);
	alt_up_char_buffer_string(char_buffer, "                    ", 7, 54);
  801cac:	05002134 	movhi	r20,132
  801cb0:	a50a3704 	addi	r20,r20,10460
}

void playButtonCollide(struct Button* this){
	if (mouse->frame->currentPanel == 0 || (mouse->frame->currentPanel == 2 && db.playlists[db.curr_playlist_id]->num_of_songs > 0)){
		if (db.curr_song_id == 0 || db.songs[db.curr_song_id]->sound == NULL){
			syncPlay(1, db.songs[1]->volume, 0);
  801cb4:	08034740 	call	803474 <syncPlay>
			highlightButton(this->Panel->mainFrame->elements[2]->buttons[1]);
  801cb8:	91800117 	ldw	r6,4(r18)
	}

}

void highlightButton(struct Button* this){
	draw_notransparent(241, 13, this->Panel->bg_image);
  801cbc:	01003c44 	movi	r4,241
  801cc0:	01400344 	movi	r5,13

void playButtonCollide(struct Button* this){
	if (mouse->frame->currentPanel == 0 || (mouse->frame->currentPanel == 2 && db.playlists[db.curr_playlist_id]->num_of_songs > 0)){
		if (db.curr_song_id == 0 || db.songs[db.curr_song_id]->sound == NULL){
			syncPlay(1, db.songs[1]->volume, 0);
			highlightButton(this->Panel->mainFrame->elements[2]->buttons[1]);
  801cc4:	30800717 	ldw	r2,28(r6)
  801cc8:	10c00017 	ldw	r3,0(r2)
  801ccc:	19800217 	ldw	r6,8(r3)
  801cd0:	30800117 	ldw	r2,4(r6)
  801cd4:	14000117 	ldw	r16,4(r2)
	}

}

void highlightButton(struct Button* this){
	draw_notransparent(241, 13, this->Panel->bg_image);
  801cd8:	80c00117 	ldw	r3,4(r16)
  801cdc:	19800617 	ldw	r6,24(r3)
  801ce0:	08097380 	call	809738 <draw_notransparent>
	int i = 0;
	int y = 4* this->y_pos - 2;
	int x = 4* this->x_pos - 3;
  801ce4:	84800717 	ldw	r18,28(r16)
}

void highlightButton(struct Button* this){
	draw_notransparent(241, 13, this->Panel->bg_image);
	int i = 0;
	int y = 4* this->y_pos - 2;
  801ce8:	84c00817 	ldw	r19,32(r16)
	int x = 4* this->x_pos - 3;
	for (i = 0; i < 10; i++, y++){
		drawHorizontalLine(x, y, 76, 0xe711ce);
  801cec:	01801304 	movi	r6,76

void highlightButton(struct Button* this){
	draw_notransparent(241, 13, this->Panel->bg_image);
	int i = 0;
	int y = 4* this->y_pos - 2;
	int x = 4* this->x_pos - 3;
  801cf0:	94a5883a 	add	r18,r18,r18
}

void highlightButton(struct Button* this){
	draw_notransparent(241, 13, this->Panel->bg_image);
	int i = 0;
	int y = 4* this->y_pos - 2;
  801cf4:	9ce7883a 	add	r19,r19,r19
	int x = 4* this->x_pos - 3;
  801cf8:	94a5883a 	add	r18,r18,r18
}

void highlightButton(struct Button* this){
	draw_notransparent(241, 13, this->Panel->bg_image);
	int i = 0;
	int y = 4* this->y_pos - 2;
  801cfc:	9ce7883a 	add	r19,r19,r19
	int x = 4* this->x_pos - 3;
  801d00:	94bfff44 	addi	r18,r18,-3
	for (i = 0; i < 10; i++, y++){
		drawHorizontalLine(x, y, 76, 0xe711ce);
  801d04:	997fff84 	addi	r5,r19,-2
  801d08:	9009883a 	mov	r4,r18
  801d0c:	01c039f4 	movhi	r7,231
  801d10:	39c47384 	addi	r7,r7,4558
  801d14:	0809e040 	call	809e04 <drawHorizontalLine>
  801d18:	9009883a 	mov	r4,r18
  801d1c:	997fffc4 	addi	r5,r19,-1
  801d20:	01801304 	movi	r6,76
  801d24:	01c039f4 	movhi	r7,231
  801d28:	39c47384 	addi	r7,r7,4558
  801d2c:	0809e040 	call	809e04 <drawHorizontalLine>
  801d30:	9009883a 	mov	r4,r18
  801d34:	980b883a 	mov	r5,r19
  801d38:	01801304 	movi	r6,76
  801d3c:	01c039f4 	movhi	r7,231
  801d40:	39c47384 	addi	r7,r7,4558
  801d44:	0809e040 	call	809e04 <drawHorizontalLine>
  801d48:	9009883a 	mov	r4,r18
  801d4c:	99400044 	addi	r5,r19,1
  801d50:	01801304 	movi	r6,76
  801d54:	01c039f4 	movhi	r7,231
  801d58:	39c47384 	addi	r7,r7,4558
  801d5c:	0809e040 	call	809e04 <drawHorizontalLine>
  801d60:	9009883a 	mov	r4,r18
  801d64:	99400084 	addi	r5,r19,2
  801d68:	01801304 	movi	r6,76
  801d6c:	01c039f4 	movhi	r7,231
  801d70:	39c47384 	addi	r7,r7,4558
  801d74:	0809e040 	call	809e04 <drawHorizontalLine>
  801d78:	9009883a 	mov	r4,r18
  801d7c:	994000c4 	addi	r5,r19,3
  801d80:	01801304 	movi	r6,76
  801d84:	01c039f4 	movhi	r7,231
  801d88:	39c47384 	addi	r7,r7,4558
  801d8c:	0809e040 	call	809e04 <drawHorizontalLine>
  801d90:	9009883a 	mov	r4,r18
  801d94:	99400104 	addi	r5,r19,4
  801d98:	01801304 	movi	r6,76
  801d9c:	01c039f4 	movhi	r7,231
  801da0:	39c47384 	addi	r7,r7,4558
  801da4:	0809e040 	call	809e04 <drawHorizontalLine>
  801da8:	9009883a 	mov	r4,r18
  801dac:	99400144 	addi	r5,r19,5
  801db0:	01801304 	movi	r6,76
  801db4:	01c039f4 	movhi	r7,231
  801db8:	39c47384 	addi	r7,r7,4558
  801dbc:	0809e040 	call	809e04 <drawHorizontalLine>
  801dc0:	9009883a 	mov	r4,r18
  801dc4:	99400184 	addi	r5,r19,6
  801dc8:	01801304 	movi	r6,76
  801dcc:	01c039f4 	movhi	r7,231
  801dd0:	39c47384 	addi	r7,r7,4558
  801dd4:	0809e040 	call	809e04 <drawHorizontalLine>
  801dd8:	994001c4 	addi	r5,r19,7
  801ddc:	01c039f4 	movhi	r7,231
  801de0:	39c47384 	addi	r7,r7,4558
  801de4:	9009883a 	mov	r4,r18
  801de8:	01801304 	movi	r6,76
  801dec:	0809e040 	call	809e04 <drawHorizontalLine>
void playButtonCollide(struct Button* this){
	if (mouse->frame->currentPanel == 0 || (mouse->frame->currentPanel == 2 && db.playlists[db.curr_playlist_id]->num_of_songs > 0)){
		if (db.curr_song_id == 0 || db.songs[db.curr_song_id]->sound == NULL){
			syncPlay(1, db.songs[1]->volume, 0);
			highlightButton(this->Panel->mainFrame->elements[2]->buttons[1]);
			printf("Play button is clicked\n");
  801df0:	010020f4 	movhi	r4,131
  801df4:	210bf804 	addi	r4,r4,12256
  801df8:	08221800 	call	822180 <puts>
	char temp[4];
	if (song_id == 0){
		song_id = 1;
	}
	memset(temp, 0 , sizeof(temp)/sizeof(temp[0]));
	sprintf(temp, "%d", db.songs[song_id]->volume);
  801dfc:	a8c03717 	ldw	r3,220(r21)
void updateVolumeValue(int song_id){
	char temp[4];
	if (song_id == 0){
		song_id = 1;
	}
	memset(temp, 0 , sizeof(temp)/sizeof(temp[0]));
  801e00:	d8000015 	stw	zero,0(sp)
	sprintf(temp, "%d", db.songs[song_id]->volume);
  801e04:	d809883a 	mov	r4,sp
  801e08:	19800717 	ldw	r6,28(r3)
  801e0c:	014020f4 	movhi	r5,131
  801e10:	294bac04 	addi	r5,r5,11952
  801e14:	0822b640 	call	822b64 <sprintf>
	alt_up_char_buffer_string(char_buffer, "                    ", 7, 54);
  801e18:	a1000017 	ldw	r4,0(r20)
  801e1c:	014020f4 	movhi	r5,131
  801e20:	294bad04 	addi	r5,r5,11956
  801e24:	018001c4 	movi	r6,7
  801e28:	01c00d84 	movi	r7,54
  801e2c:	082c8c40 	call	82c8c4 <alt_up_char_buffer_string>
	alt_up_char_buffer_string(char_buffer, temp, 8, 54);
  801e30:	a1000017 	ldw	r4,0(r20)
  801e34:	d80b883a 	mov	r5,sp
  801e38:	01800204 	movi	r6,8
  801e3c:	01c00d84 	movi	r7,54
  801e40:	082c8c40 	call	82c8c4 <alt_up_char_buffer_string>
  801e44:	003efd06 	br	801a3c <playButtonCollide+0x44>
	draw(getXActionBtn(this->type), getYActionBtn(this->type), this->stats[stats_index]);
}

void updateVolumeValue(int song_id){
	char temp[4];
	if (song_id == 0){
  801e48:	00800044 	movi	r2,1
  801e4c:	003f6e06 	br	801c08 <playButtonCollide+0x210>

00801e50 <actionButtonCollide>:
	}
	this->Panel->mainFrame->elements[2]->drawFrame(this->Panel->mainFrame->elements[2]);
}

void actionButtonCollide(struct Button* this){
	switch(this->type){
  801e50:	20c00417 	ldw	r3,16(r4)
		return;
	}
	this->Panel->mainFrame->elements[2]->drawFrame(this->Panel->mainFrame->elements[2]);
}

void actionButtonCollide(struct Button* this){
  801e54:	defffc04 	addi	sp,sp,-16
	switch(this->type){
  801e58:	00800104 	movi	r2,4
		return;
	}
	this->Panel->mainFrame->elements[2]->drawFrame(this->Panel->mainFrame->elements[2]);
}

void actionButtonCollide(struct Button* this){
  801e5c:	dfc00315 	stw	ra,12(sp)
  801e60:	dc400215 	stw	r17,8(sp)
  801e64:	dc000115 	stw	r16,4(sp)
  801e68:	200b883a 	mov	r5,r4
	switch(this->type){
  801e6c:	10c03136 	bltu	r2,r3,801f34 <actionButtonCollide+0xe4>
  801e70:	18c5883a 	add	r2,r3,r3
  801e74:	1085883a 	add	r2,r2,r2
  801e78:	00c02034 	movhi	r3,128
  801e7c:	18c7a304 	addi	r3,r3,7820
  801e80:	10c5883a 	add	r2,r2,r3
  801e84:	11000017 	ldw	r4,0(r2)
  801e88:	2000683a 	jmp	r4
  801e8c:	00801f48 	cmpgei	r2,zero,125
  801e90:	0080205c 	xori	r2,zero,129
  801e94:	0080200c 	andi	r2,zero,128
  801e98:	00801f64 	muli	r2,zero,125
  801e9c:	00801ea0 	cmpeqi	r2,zero,122
		printf("Prev button is clicked.\n");
	}
}

void nextButtonCollide(struct Button* this){
	if(db.curr_song_id >= db.num_of_songs || db.curr_song_id == 0) return;
  801ea0:	04002134 	movhi	r16,132
  801ea4:	840a6204 	addi	r16,r16,10632
  801ea8:	81000017 	ldw	r4,0(r16)
  801eac:	8080a717 	ldw	r2,668(r16)
  801eb0:	2080200e 	bge	r4,r2,801f34 <actionButtonCollide+0xe4>
  801eb4:	20001f26 	beq	r4,zero,801f34 <actionButtonCollide+0xe4>
	syncNext(db.curr_song_id);
  801eb8:	08037b40 	call	8037b4 <syncNext>
	updateVolumeValue(db.curr_song_id + 1);
  801ebc:	80800017 	ldw	r2,0(r16)
  801ec0:	10800044 	addi	r2,r2,1
	draw(getXActionBtn(this->type), getYActionBtn(this->type), this->stats[stats_index]);
}

void updateVolumeValue(int song_id){
	char temp[4];
	if (song_id == 0){
  801ec4:	1000011e 	bne	r2,zero,801ecc <actionButtonCollide+0x7c>
  801ec8:	00800044 	movi	r2,1
		song_id = 1;
	}
	memset(temp, 0 , sizeof(temp)/sizeof(temp[0]));
	sprintf(temp, "%d", db.songs[song_id]->volume);
  801ecc:	1085883a 	add	r2,r2,r2
  801ed0:	1085883a 	add	r2,r2,r2
  801ed4:	1405883a 	add	r2,r2,r16
  801ed8:	10c03617 	ldw	r3,216(r2)
void updateVolumeValue(int song_id){
	char temp[4];
	if (song_id == 0){
		song_id = 1;
	}
	memset(temp, 0 , sizeof(temp)/sizeof(temp[0]));
  801edc:	d8000015 	stw	zero,0(sp)
	sprintf(temp, "%d", db.songs[song_id]->volume);
  801ee0:	d809883a 	mov	r4,sp
  801ee4:	19800717 	ldw	r6,28(r3)
  801ee8:	014020f4 	movhi	r5,131
  801eec:	294bac04 	addi	r5,r5,11952
	alt_up_char_buffer_string(char_buffer, "                    ", 7, 54);
  801ef0:	04002134 	movhi	r16,132
  801ef4:	840a3704 	addi	r16,r16,10460
	char temp[4];
	if (song_id == 0){
		song_id = 1;
	}
	memset(temp, 0 , sizeof(temp)/sizeof(temp[0]));
	sprintf(temp, "%d", db.songs[song_id]->volume);
  801ef8:	0822b640 	call	822b64 <sprintf>
	alt_up_char_buffer_string(char_buffer, "                    ", 7, 54);
  801efc:	81000017 	ldw	r4,0(r16)
  801f00:	014020f4 	movhi	r5,131
  801f04:	294bad04 	addi	r5,r5,11956
  801f08:	018001c4 	movi	r6,7
  801f0c:	01c00d84 	movi	r7,54
  801f10:	082c8c40 	call	82c8c4 <alt_up_char_buffer_string>
	alt_up_char_buffer_string(char_buffer, temp, 8, 54);
  801f14:	81000017 	ldw	r4,0(r16)
  801f18:	d80b883a 	mov	r5,sp
  801f1c:	01800204 	movi	r6,8
  801f20:	01c00d84 	movi	r7,54
  801f24:	082c8c40 	call	82c8c4 <alt_up_char_buffer_string>
	if(db.curr_song_id >= db.num_of_songs || db.curr_song_id == 0) return;
	syncNext(db.curr_song_id);
	updateVolumeValue(db.curr_song_id + 1);
	if(this == NULL) return;
	//highlightButton(this->Panel->mainFrame->elements[2]->buttons[db.curr_song_id+1]);
	printf("Next button is clicked.\n");
  801f28:	010020f4 	movhi	r4,131
  801f2c:	210bd704 	addi	r4,r4,12124
  801f30:	08221800 	call	822180 <puts>
		nextButtonCollide(this);
		break;
	default:
		break;
	}
}
  801f34:	dfc00317 	ldw	ra,12(sp)
  801f38:	dc400217 	ldw	r17,8(sp)
  801f3c:	dc000117 	ldw	r16,4(sp)
  801f40:	dec00404 	addi	sp,sp,16
  801f44:	f800283a 	ret
}

void actionButtonCollide(struct Button* this){
	switch(this->type){
	case 0:
		playButtonCollide(this);
  801f48:	2809883a 	mov	r4,r5
  801f4c:	08019f80 	call	8019f8 <playButtonCollide>
		nextButtonCollide(this);
		break;
	default:
		break;
	}
}
  801f50:	dfc00317 	ldw	ra,12(sp)
  801f54:	dc400217 	ldw	r17,8(sp)
  801f58:	dc000117 	ldw	r16,4(sp)
  801f5c:	dec00404 	addi	sp,sp,16
  801f60:	f800283a 	ret
		updateVolumeValue(db.curr_song_id);
	}
}

void prevButtonCollide(struct Button* this){
	if (mouse->frame->currentPanel != 1){
  801f64:	00802134 	movhi	r2,132
  801f68:	108a3a04 	addi	r2,r2,10472
  801f6c:	11000017 	ldw	r4,0(r2)
  801f70:	04400044 	movi	r17,1
  801f74:	20800317 	ldw	r2,12(r4)
  801f78:	10c00417 	ldw	r3,16(r2)
  801f7c:	1c7fed26 	beq	r3,r17,801f34 <actionButtonCollide+0xe4>
		if(db.curr_song_id <= 1 || db.curr_song_id == 0) return;
  801f80:	04002134 	movhi	r16,132
  801f84:	840a6204 	addi	r16,r16,10632
  801f88:	81000017 	ldw	r4,0(r16)
  801f8c:	893fe90e 	bge	r17,r4,801f34 <actionButtonCollide+0xe4>
		syncPrev(db.curr_song_id);
  801f90:	08038780 	call	803878 <syncPrev>
		updateVolumeValue(db.curr_song_id - 1);
  801f94:	80800017 	ldw	r2,0(r16)
  801f98:	10bfffc4 	addi	r2,r2,-1
	draw(getXActionBtn(this->type), getYActionBtn(this->type), this->stats[stats_index]);
}

void updateVolumeValue(int song_id){
	char temp[4];
	if (song_id == 0){
  801f9c:	10005e26 	beq	r2,zero,802118 <actionButtonCollide+0x2c8>
		song_id = 1;
	}
	memset(temp, 0 , sizeof(temp)/sizeof(temp[0]));
	sprintf(temp, "%d", db.songs[song_id]->volume);
  801fa0:	1085883a 	add	r2,r2,r2
  801fa4:	1085883a 	add	r2,r2,r2
  801fa8:	1405883a 	add	r2,r2,r16
  801fac:	10c03617 	ldw	r3,216(r2)
void updateVolumeValue(int song_id){
	char temp[4];
	if (song_id == 0){
		song_id = 1;
	}
	memset(temp, 0 , sizeof(temp)/sizeof(temp[0]));
  801fb0:	d8000015 	stw	zero,0(sp)
	sprintf(temp, "%d", db.songs[song_id]->volume);
  801fb4:	d809883a 	mov	r4,sp
  801fb8:	19800717 	ldw	r6,28(r3)
	alt_up_char_buffer_string(char_buffer, "                    ", 7, 54);
  801fbc:	04002134 	movhi	r16,132
  801fc0:	840a3704 	addi	r16,r16,10460
	char temp[4];
	if (song_id == 0){
		song_id = 1;
	}
	memset(temp, 0 , sizeof(temp)/sizeof(temp[0]));
	sprintf(temp, "%d", db.songs[song_id]->volume);
  801fc4:	014020f4 	movhi	r5,131
  801fc8:	294bac04 	addi	r5,r5,11952
  801fcc:	0822b640 	call	822b64 <sprintf>
	alt_up_char_buffer_string(char_buffer, "                    ", 7, 54);
  801fd0:	81000017 	ldw	r4,0(r16)
  801fd4:	014020f4 	movhi	r5,131
  801fd8:	294bad04 	addi	r5,r5,11956
  801fdc:	018001c4 	movi	r6,7
  801fe0:	01c00d84 	movi	r7,54
  801fe4:	082c8c40 	call	82c8c4 <alt_up_char_buffer_string>
	alt_up_char_buffer_string(char_buffer, temp, 8, 54);
  801fe8:	81000017 	ldw	r4,0(r16)
  801fec:	d80b883a 	mov	r5,sp
  801ff0:	01800204 	movi	r6,8
  801ff4:	01c00d84 	movi	r7,54
  801ff8:	082c8c40 	call	82c8c4 <alt_up_char_buffer_string>
		if(db.curr_song_id <= 1 || db.curr_song_id == 0) return;
		syncPrev(db.curr_song_id);
		updateVolumeValue(db.curr_song_id - 1);
		if(this == NULL) return;
		//highlightButton(this->Panel->mainFrame->elements[2]->buttons[db.curr_song_id-1]);
		printf("Prev button is clicked.\n");
  801ffc:	010020f4 	movhi	r4,131
  802000:	210bdd04 	addi	r4,r4,12148
  802004:	08221800 	call	822180 <puts>
  802008:	003fca06 	br	801f34 <actionButtonCollide+0xe4>
		}
	}
}

void pauseButtonCollide(struct Button* this){
	if (mouse->frame->currentPanel != 1){
  80200c:	00802134 	movhi	r2,132
  802010:	108a3a04 	addi	r2,r2,10472
  802014:	11000017 	ldw	r4,0(r2)
  802018:	04400044 	movi	r17,1
  80201c:	20800317 	ldw	r2,12(r4)
  802020:	10c00417 	ldw	r3,16(r2)
  802024:	1c7fc326 	beq	r3,r17,801f34 <actionButtonCollide+0xe4>
		syncPause(db.curr_song_id);
  802028:	04002134 	movhi	r16,132
  80202c:	840a6204 	addi	r16,r16,10632
  802030:	81000017 	ldw	r4,0(r16)
  802034:	08033ec0 	call	8033ec <syncPause>
		printf("Pause button is clicked.\n");
  802038:	010020f4 	movhi	r4,131
  80203c:	210be904 	addi	r4,r4,12196
  802040:	08221800 	call	822180 <puts>
		updateVolumeValue(db.curr_song_id);
  802044:	80800017 	ldw	r2,0(r16)
	draw(getXActionBtn(this->type), getYActionBtn(this->type), this->stats[stats_index]);
}

void updateVolumeValue(int song_id){
	char temp[4];
	if (song_id == 0){
  802048:	10003126 	beq	r2,zero,802110 <actionButtonCollide+0x2c0>
		song_id = 1;
	}
	memset(temp, 0 , sizeof(temp)/sizeof(temp[0]));
	sprintf(temp, "%d", db.songs[song_id]->volume);
  80204c:	1085883a 	add	r2,r2,r2
  802050:	1085883a 	add	r2,r2,r2
  802054:	1405883a 	add	r2,r2,r16
  802058:	00001206 	br	8020a4 <actionButtonCollide+0x254>
		updateVolumeValue(db.curr_song_id);
	}
}

void stopButtonCollide(struct Button* this){
	if (mouse->frame->currentPanel != 1){
  80205c:	00802134 	movhi	r2,132
  802060:	108a3a04 	addi	r2,r2,10472
  802064:	11000017 	ldw	r4,0(r2)
  802068:	04000044 	movi	r16,1
  80206c:	20800317 	ldw	r2,12(r4)
  802070:	10c00417 	ldw	r3,16(r2)
  802074:	1c3faf26 	beq	r3,r16,801f34 <actionButtonCollide+0xe4>
		syncStop();
  802078:	08033a00 	call	8033a0 <syncStop>
		printf("Stop button is clicked\n");
  80207c:	010020f4 	movhi	r4,131
  802080:	210be304 	addi	r4,r4,12172
  802084:	08221800 	call	822180 <puts>
		updateVolumeValue(db.curr_song_id);
  802088:	00c02134 	movhi	r3,132
  80208c:	18ca6204 	addi	r3,r3,10632
  802090:	18800017 	ldw	r2,0(r3)
	draw(getXActionBtn(this->type), getYActionBtn(this->type), this->stats[stats_index]);
}

void updateVolumeValue(int song_id){
	char temp[4];
	if (song_id == 0){
  802094:	10001c26 	beq	r2,zero,802108 <actionButtonCollide+0x2b8>
		song_id = 1;
	}
	memset(temp, 0 , sizeof(temp)/sizeof(temp[0]));
	sprintf(temp, "%d", db.songs[song_id]->volume);
  802098:	1085883a 	add	r2,r2,r2
  80209c:	1085883a 	add	r2,r2,r2
  8020a0:	10c5883a 	add	r2,r2,r3
  8020a4:	10c03617 	ldw	r3,216(r2)
void updateVolumeValue(int song_id){
	char temp[4];
	if (song_id == 0){
		song_id = 1;
	}
	memset(temp, 0 , sizeof(temp)/sizeof(temp[0]));
  8020a8:	d8000015 	stw	zero,0(sp)
	sprintf(temp, "%d", db.songs[song_id]->volume);
  8020ac:	d809883a 	mov	r4,sp
  8020b0:	19800717 	ldw	r6,28(r3)
	alt_up_char_buffer_string(char_buffer, "                    ", 7, 54);
  8020b4:	04002134 	movhi	r16,132
  8020b8:	840a3704 	addi	r16,r16,10460
	char temp[4];
	if (song_id == 0){
		song_id = 1;
	}
	memset(temp, 0 , sizeof(temp)/sizeof(temp[0]));
	sprintf(temp, "%d", db.songs[song_id]->volume);
  8020bc:	014020f4 	movhi	r5,131
  8020c0:	294bac04 	addi	r5,r5,11952
  8020c4:	0822b640 	call	822b64 <sprintf>
	alt_up_char_buffer_string(char_buffer, "                    ", 7, 54);
  8020c8:	81000017 	ldw	r4,0(r16)
  8020cc:	014020f4 	movhi	r5,131
  8020d0:	294bad04 	addi	r5,r5,11956
  8020d4:	018001c4 	movi	r6,7
  8020d8:	01c00d84 	movi	r7,54
  8020dc:	082c8c40 	call	82c8c4 <alt_up_char_buffer_string>
	alt_up_char_buffer_string(char_buffer, temp, 8, 54);
  8020e0:	81000017 	ldw	r4,0(r16)
  8020e4:	d80b883a 	mov	r5,sp
  8020e8:	01800204 	movi	r6,8
  8020ec:	01c00d84 	movi	r7,54
  8020f0:	082c8c40 	call	82c8c4 <alt_up_char_buffer_string>
		nextButtonCollide(this);
		break;
	default:
		break;
	}
}
  8020f4:	dfc00317 	ldw	ra,12(sp)
  8020f8:	dc400217 	ldw	r17,8(sp)
  8020fc:	dc000117 	ldw	r16,4(sp)
  802100:	dec00404 	addi	sp,sp,16
  802104:	f800283a 	ret
	draw(getXActionBtn(this->type), getYActionBtn(this->type), this->stats[stats_index]);
}

void updateVolumeValue(int song_id){
	char temp[4];
	if (song_id == 0){
  802108:	8005883a 	mov	r2,r16
  80210c:	003fe206 	br	802098 <actionButtonCollide+0x248>
  802110:	8805883a 	mov	r2,r17
  802114:	003fcd06 	br	80204c <actionButtonCollide+0x1fc>
  802118:	8805883a 	mov	r2,r17
  80211c:	003fa006 	br	801fa0 <actionButtonCollide+0x150>

00802120 <decodePlaylist>:
	return result;
}
void* decodePlaylist(struct Packet** p, int size) {

	return NULL;
}
  802120:	0005883a 	mov	r2,zero
  802124:	f800283a 	ret

00802128 <decodeString>:
}

void* decodeString(struct Packet** p, int size) {
	int i = 0, j = 0, k = 0;
	int char_len = (size-1)*100+p[size-1]->data_size;
	char* result = (char*)malloc(sizeof(char)*char_len);
  802128:	2945883a 	add	r2,r5,r5
  80212c:	1085883a 	add	r2,r2,r2
  802130:	1105883a 	add	r2,r2,r4
  802134:	10ffff17 	ldw	r3,-4(r2)
	}
	free(packets);
	packets = NULL;
}

void* decodeString(struct Packet** p, int size) {
  802138:	defffd04 	addi	sp,sp,-12
  80213c:	dc400115 	stw	r17,4(sp)
  802140:	2023883a 	mov	r17,r4
	int i = 0, j = 0, k = 0;
	int char_len = (size-1)*100+p[size-1]->data_size;
	char* result = (char*)malloc(sizeof(char)*char_len);
  802144:	19000117 	ldw	r4,4(r3)
	}
	free(packets);
	packets = NULL;
}

void* decodeString(struct Packet** p, int size) {
  802148:	dc000015 	stw	r16,0(sp)
  80214c:	2821883a 	mov	r16,r5
	int i = 0, j = 0, k = 0;
	int char_len = (size-1)*100+p[size-1]->data_size;
	char* result = (char*)malloc(sizeof(char)*char_len);
  802150:	29401924 	muli	r5,r5,100
  802154:	213fe704 	addi	r4,r4,-100
	}
	free(packets);
	packets = NULL;
}

void* decodeString(struct Packet** p, int size) {
  802158:	dfc00215 	stw	ra,8(sp)
	int i = 0, j = 0, k = 0;
	int char_len = (size-1)*100+p[size-1]->data_size;
	char* result = (char*)malloc(sizeof(char)*char_len);
  80215c:	2909883a 	add	r4,r5,r4
  802160:	08216fc0 	call	8216fc <malloc>
  802164:	1015883a 	mov	r10,r2
	for(i = 0; i < size; i++) {
  802168:	04001c0e 	bge	zero,r16,8021dc <decodeString+0xb4>
  80216c:	8809883a 	mov	r4,r17
  802170:	0013883a 	mov	r9,zero
  802174:	0011883a 	mov	r8,zero
		for(j = 0; j < p[i]->data_size; j++) {
  802178:	20800017 	ldw	r2,0(r4)
  80217c:	11c00117 	ldw	r7,4(r2)
  802180:	01c00a0e 	bge	zero,r7,8021ac <decodeString+0x84>
  802184:	11800017 	ldw	r6,0(r2)
  802188:	4a8b883a 	add	r5,r9,r10
  80218c:	0007883a 	mov	r3,zero
			result[k] = p[i]->data[j+HEADERSIZE];
  802190:	30800083 	ldbu	r2,2(r6)
void* decodeString(struct Packet** p, int size) {
	int i = 0, j = 0, k = 0;
	int char_len = (size-1)*100+p[size-1]->data_size;
	char* result = (char*)malloc(sizeof(char)*char_len);
	for(i = 0; i < size; i++) {
		for(j = 0; j < p[i]->data_size; j++) {
  802194:	18c00044 	addi	r3,r3,1
  802198:	31800044 	addi	r6,r6,1
			result[k] = p[i]->data[j+HEADERSIZE];
  80219c:	28800005 	stb	r2,0(r5)
void* decodeString(struct Packet** p, int size) {
	int i = 0, j = 0, k = 0;
	int char_len = (size-1)*100+p[size-1]->data_size;
	char* result = (char*)malloc(sizeof(char)*char_len);
	for(i = 0; i < size; i++) {
		for(j = 0; j < p[i]->data_size; j++) {
  8021a0:	29400044 	addi	r5,r5,1
  8021a4:	19fffa1e 	bne	r3,r7,802190 <decodeString+0x68>
  8021a8:	48d3883a 	add	r9,r9,r3

void* decodeString(struct Packet** p, int size) {
	int i = 0, j = 0, k = 0;
	int char_len = (size-1)*100+p[size-1]->data_size;
	char* result = (char*)malloc(sizeof(char)*char_len);
	for(i = 0; i < size; i++) {
  8021ac:	42000044 	addi	r8,r8,1
  8021b0:	21000104 	addi	r4,r4,4
  8021b4:	823ff01e 	bne	r16,r8,802178 <decodeString+0x50>
  8021b8:	4805883a 	mov	r2,r9
		for(j = 0; j < p[i]->data_size; j++) {
			result[k] = p[i]->data[j+HEADERSIZE];
			k++;
		}
	} result[k] = '\0';
  8021bc:	5085883a 	add	r2,r10,r2
  8021c0:	10000005 	stb	zero,0(r2)
	return (void*)result;
}
  8021c4:	5005883a 	mov	r2,r10
  8021c8:	dfc00217 	ldw	ra,8(sp)
  8021cc:	dc400117 	ldw	r17,4(sp)
  8021d0:	dc000017 	ldw	r16,0(sp)
  8021d4:	dec00304 	addi	sp,sp,12
  8021d8:	f800283a 	ret
void* decodeString(struct Packet** p, int size) {
	int i = 0, j = 0, k = 0;
	int char_len = (size-1)*100+p[size-1]->data_size;
	char* result = (char*)malloc(sizeof(char)*char_len);
	for(i = 0; i < size; i++) {
		for(j = 0; j < p[i]->data_size; j++) {
  8021dc:	0005883a 	mov	r2,zero
			result[k] = p[i]->data[j+HEADERSIZE];
			k++;
		}
	} result[k] = '\0';
  8021e0:	5085883a 	add	r2,r10,r2
  8021e4:	10000005 	stb	zero,0(r2)
	return (void*)result;
}
  8021e8:	5005883a 	mov	r2,r10
  8021ec:	dfc00217 	ldw	ra,8(sp)
  8021f0:	dc400117 	ldw	r17,4(sp)
  8021f4:	dc000017 	ldw	r16,0(sp)
  8021f8:	dec00304 	addi	sp,sp,12
  8021fc:	f800283a 	ret

00802200 <decodeCmd>:
void* decodeCmd(struct Packet** p, int size) {
	int length = 0;
	int cmd_index = (int)p[0]->data[2];;
  802200:	20c00017 	ldw	r3,0(r4)
			k++;
		}
	} result[k] = '\0';
	return (void*)result;
}
void* decodeCmd(struct Packet** p, int size) {
  802204:	defff404 	addi	sp,sp,-48
  802208:	dd000615 	stw	r20,24(sp)
	int length = 0;
	int cmd_index = (int)p[0]->data[2];;
  80220c:	18800017 	ldw	r2,0(r3)
			k++;
		}
	} result[k] = '\0';
	return (void*)result;
}
void* decodeCmd(struct Packet** p, int size) {
  802210:	dc400315 	stw	r17,12(sp)
  802214:	dc000215 	stw	r16,8(sp)
  802218:	dfc00b15 	stw	ra,44(sp)
  80221c:	df000a15 	stw	fp,40(sp)
  802220:	ddc00915 	stw	r23,36(sp)
  802224:	dd800815 	stw	r22,32(sp)
  802228:	dd400715 	stw	r21,28(sp)
  80222c:	dcc00515 	stw	r19,20(sp)
  802230:	dc800415 	stw	r18,16(sp)
	int length = 0;
	int cmd_index = (int)p[0]->data[2];;
	int num_parameters = (int)p[0]->data[3];;
  802234:	15c000c3 	ldbu	r23,3(r2)
	} result[k] = '\0';
	return (void*)result;
}
void* decodeCmd(struct Packet** p, int size) {
	int length = 0;
	int cmd_index = (int)p[0]->data[2];;
  802238:	10800083 	ldbu	r2,2(r2)
			k++;
		}
	} result[k] = '\0';
	return (void*)result;
}
void* decodeCmd(struct Packet** p, int size) {
  80223c:	2023883a 	mov	r17,r4
	int length = 0;
	int cmd_index = (int)p[0]->data[2];;
	int num_parameters = (int)p[0]->data[3];;
	char** paras = (char**)malloc(sizeof(char*)*num_parameters);
  802240:	bdc9883a 	add	r4,r23,r23
  802244:	2109883a 	add	r4,r4,r4
			k++;
		}
	} result[k] = '\0';
	return (void*)result;
}
void* decodeCmd(struct Packet** p, int size) {
  802248:	2821883a 	mov	r16,r5
	int length = 0;
	int cmd_index = (int)p[0]->data[2];;
  80224c:	d8800115 	stw	r2,4(sp)
	int num_parameters = (int)p[0]->data[3];;
	char** paras = (char**)malloc(sizeof(char*)*num_parameters);
  802250:	08216fc0 	call	8216fc <malloc>
  802254:	1029883a 	mov	r20,r2
  802258:	d8800015 	stw	r2,0(sp)
	int i, j, k;
	for(i = 0; i < size; i++) {
  80225c:	0400630e 	bge	zero,r16,8023ec <decodeCmd+0x1ec>
  802260:	880b883a 	mov	r5,r17
  802264:	000d883a 	mov	r6,zero
  802268:	0009883a 	mov	r4,zero
		length += p[i]->data_size;
  80226c:	28c00017 	ldw	r3,0(r5)
	int length = 0;
	int cmd_index = (int)p[0]->data[2];;
	int num_parameters = (int)p[0]->data[3];;
	char** paras = (char**)malloc(sizeof(char*)*num_parameters);
	int i, j, k;
	for(i = 0; i < size; i++) {
  802270:	31800044 	addi	r6,r6,1
  802274:	29400104 	addi	r5,r5,4
		length += p[i]->data_size;
  802278:	18800117 	ldw	r2,4(r3)
  80227c:	2089883a 	add	r4,r4,r2
	int length = 0;
	int cmd_index = (int)p[0]->data[2];;
	int num_parameters = (int)p[0]->data[3];;
	char** paras = (char**)malloc(sizeof(char*)*num_parameters);
	int i, j, k;
	for(i = 0; i < size; i++) {
  802280:	81bffa1e 	bne	r16,r6,80226c <decodeCmd+0x6c>
		length += p[i]->data_size;
	}
	char* dataBuf = (char*)malloc(sizeof(char)*length);
  802284:	08216fc0 	call	8216fc <malloc>
  802288:	1039883a 	mov	fp,r2
  80228c:	8809883a 	mov	r4,r17
  802290:	0013883a 	mov	r9,zero
  802294:	0011883a 	mov	r8,zero
	i = 0;
	for(j = 0; j < size; j++) {
		for(k = 0; k < p[j]->data_size; k++) {
  802298:	20800017 	ldw	r2,0(r4)
  80229c:	11c00117 	ldw	r7,4(r2)
  8022a0:	01c00a0e 	bge	zero,r7,8022cc <decodeCmd+0xcc>
  8022a4:	11800017 	ldw	r6,0(r2)
  8022a8:	e24b883a 	add	r5,fp,r9
  8022ac:	0007883a 	mov	r3,zero
			dataBuf[i++] = p[j]->data[k+HEADERSIZE];
  8022b0:	30800083 	ldbu	r2,2(r6)
		length += p[i]->data_size;
	}
	char* dataBuf = (char*)malloc(sizeof(char)*length);
	i = 0;
	for(j = 0; j < size; j++) {
		for(k = 0; k < p[j]->data_size; k++) {
  8022b4:	18c00044 	addi	r3,r3,1
  8022b8:	31800044 	addi	r6,r6,1
			dataBuf[i++] = p[j]->data[k+HEADERSIZE];
  8022bc:	28800005 	stb	r2,0(r5)
		length += p[i]->data_size;
	}
	char* dataBuf = (char*)malloc(sizeof(char)*length);
	i = 0;
	for(j = 0; j < size; j++) {
		for(k = 0; k < p[j]->data_size; k++) {
  8022c0:	29400044 	addi	r5,r5,1
  8022c4:	19fffa1e 	bne	r3,r7,8022b0 <decodeCmd+0xb0>
  8022c8:	48d3883a 	add	r9,r9,r3
	for(i = 0; i < size; i++) {
		length += p[i]->data_size;
	}
	char* dataBuf = (char*)malloc(sizeof(char)*length);
	i = 0;
	for(j = 0; j < size; j++) {
  8022cc:	42000044 	addi	r8,r8,1
  8022d0:	21000104 	addi	r4,r4,4
  8022d4:	823ff01e 	bne	r16,r8,802298 <decodeCmd+0x98>
			dataBuf[i++] = p[j]->data[k+HEADERSIZE];
		}
	}
	j = 2;
	int len = 0;
	for(i = 0; i < num_parameters; i++) {
  8022d8:	b8003e26 	beq	r23,zero,8023d4 <decodeCmd+0x1d4>
  8022dc:	a023883a 	mov	r17,r20
  8022e0:	002d883a 	mov	r22,zero
  8022e4:	05400084 	movi	r21,2
		len = (int)dataBuf[j++];
  8022e8:	af25883a 	add	r18,r21,fp
  8022ec:	94000007 	ldb	r16,0(r18)
  8022f0:	acc00044 	addi	r19,r21,1
		paras[i] = (char*)malloc(sizeof(char)*(len+1));
  8022f4:	81000044 	addi	r4,r16,1
  8022f8:	08216fc0 	call	8216fc <malloc>
  8022fc:	88800015 	stw	r2,0(r17)
		for(k = 0; k < len; k++) {
  802300:	0400310e 	bge	zero,r16,8023c8 <decodeCmd+0x1c8>
  802304:	9009883a 	mov	r4,r18
  802308:	000b883a 	mov	r5,zero
			paras[i][k] = dataBuf[j++];
  80230c:	88800017 	ldw	r2,0(r17)
  802310:	20c00043 	ldbu	r3,1(r4)
	j = 2;
	int len = 0;
	for(i = 0; i < num_parameters; i++) {
		len = (int)dataBuf[j++];
		paras[i] = (char*)malloc(sizeof(char)*(len+1));
		for(k = 0; k < len; k++) {
  802314:	21000044 	addi	r4,r4,1
			paras[i][k] = dataBuf[j++];
  802318:	1145883a 	add	r2,r2,r5
	j = 2;
	int len = 0;
	for(i = 0; i < num_parameters; i++) {
		len = (int)dataBuf[j++];
		paras[i] = (char*)malloc(sizeof(char)*(len+1));
		for(k = 0; k < len; k++) {
  80231c:	29400044 	addi	r5,r5,1
			paras[i][k] = dataBuf[j++];
  802320:	10c00005 	stb	r3,0(r2)
	j = 2;
	int len = 0;
	for(i = 0; i < num_parameters; i++) {
		len = (int)dataBuf[j++];
		paras[i] = (char*)malloc(sizeof(char)*(len+1));
		for(k = 0; k < len; k++) {
  802324:	2c3ff91e 	bne	r5,r16,80230c <decodeCmd+0x10c>
			k++;
		}
	} result[k] = '\0';
	return (void*)result;
}
void* decodeCmd(struct Packet** p, int size) {
  802328:	a945883a 	add	r2,r21,r5
  80232c:	15400044 	addi	r21,r2,1
  802330:	2807883a 	mov	r3,r5
	for(i = 0; i < num_parameters; i++) {
		len = (int)dataBuf[j++];
		paras[i] = (char*)malloc(sizeof(char)*(len+1));
		for(k = 0; k < len; k++) {
			paras[i][k] = dataBuf[j++];
		} paras[i][k] = '\0';
  802334:	88800017 	ldw	r2,0(r17)
			dataBuf[i++] = p[j]->data[k+HEADERSIZE];
		}
	}
	j = 2;
	int len = 0;
	for(i = 0; i < num_parameters; i++) {
  802338:	b5800044 	addi	r22,r22,1
  80233c:	8c400104 	addi	r17,r17,4
		len = (int)dataBuf[j++];
		paras[i] = (char*)malloc(sizeof(char)*(len+1));
		for(k = 0; k < len; k++) {
			paras[i][k] = dataBuf[j++];
		} paras[i][k] = '\0';
  802340:	10c5883a 	add	r2,r2,r3
  802344:	10000005 	stb	zero,0(r2)
			dataBuf[i++] = p[j]->data[k+HEADERSIZE];
		}
	}
	j = 2;
	int len = 0;
	for(i = 0; i < num_parameters; i++) {
  802348:	bdbfe71e 	bne	r23,r22,8022e8 <decodeCmd+0xe8>
		paras[i] = (char*)malloc(sizeof(char)*(len+1));
		for(k = 0; k < len; k++) {
			paras[i][k] = dataBuf[j++];
		} paras[i][k] = '\0';
	}
	void* result = (void*)initCmd(cmd_index, num_parameters, paras);
  80234c:	d9000117 	ldw	r4,4(sp)
  802350:	b80b883a 	mov	r5,r23
  802354:	a00d883a 	mov	r6,r20
  802358:	0802fcc0 	call	802fcc <initCmd>
  80235c:	1023883a 	mov	r17,r2
  802360:	0021883a 	mov	r16,zero
	for(i = 0; i < num_parameters; i++) {
		free(paras[i]);
  802364:	a1000017 	ldw	r4,0(r20)
		for(k = 0; k < len; k++) {
			paras[i][k] = dataBuf[j++];
		} paras[i][k] = '\0';
	}
	void* result = (void*)initCmd(cmd_index, num_parameters, paras);
	for(i = 0; i < num_parameters; i++) {
  802368:	84000044 	addi	r16,r16,1
		free(paras[i]);
  80236c:	08216e80 	call	8216e8 <free>
		paras[i] = NULL;
  802370:	a0000015 	stw	zero,0(r20)
		for(k = 0; k < len; k++) {
			paras[i][k] = dataBuf[j++];
		} paras[i][k] = '\0';
	}
	void* result = (void*)initCmd(cmd_index, num_parameters, paras);
	for(i = 0; i < num_parameters; i++) {
  802374:	a5000104 	addi	r20,r20,4
  802378:	bc3ffa1e 	bne	r23,r16,802364 <decodeCmd+0x164>
		paras[i] = (char*)malloc(sizeof(char)*(len+1));
		for(k = 0; k < len; k++) {
			paras[i][k] = dataBuf[j++];
		} paras[i][k] = '\0';
	}
	void* result = (void*)initCmd(cmd_index, num_parameters, paras);
  80237c:	8821883a 	mov	r16,r17
	for(i = 0; i < num_parameters; i++) {
		free(paras[i]);
		paras[i] = NULL;
	}
	if(num_parameters != 0) {
  802380:	b8000226 	beq	r23,zero,80238c <decodeCmd+0x18c>
		free(paras);
  802384:	d9000017 	ldw	r4,0(sp)
  802388:	08216e80 	call	8216e8 <free>
		paras = NULL;
	}
	free(dataBuf);
  80238c:	e009883a 	mov	r4,fp
  802390:	08216e80 	call	8216e8 <free>
	dataBuf = NULL;
	return result;
}
  802394:	8005883a 	mov	r2,r16
  802398:	dfc00b17 	ldw	ra,44(sp)
  80239c:	df000a17 	ldw	fp,40(sp)
  8023a0:	ddc00917 	ldw	r23,36(sp)
  8023a4:	dd800817 	ldw	r22,32(sp)
  8023a8:	dd400717 	ldw	r21,28(sp)
  8023ac:	dd000617 	ldw	r20,24(sp)
  8023b0:	dcc00517 	ldw	r19,20(sp)
  8023b4:	dc800417 	ldw	r18,16(sp)
  8023b8:	dc400317 	ldw	r17,12(sp)
  8023bc:	dc000217 	ldw	r16,8(sp)
  8023c0:	dec00c04 	addi	sp,sp,48
  8023c4:	f800283a 	ret
	j = 2;
	int len = 0;
	for(i = 0; i < num_parameters; i++) {
		len = (int)dataBuf[j++];
		paras[i] = (char*)malloc(sizeof(char)*(len+1));
		for(k = 0; k < len; k++) {
  8023c8:	982b883a 	mov	r21,r19
  8023cc:	0007883a 	mov	r3,zero
  8023d0:	003fd806 	br	802334 <decodeCmd+0x134>
			paras[i][k] = dataBuf[j++];
		} paras[i][k] = '\0';
	}
	void* result = (void*)initCmd(cmd_index, num_parameters, paras);
  8023d4:	d9000117 	ldw	r4,4(sp)
  8023d8:	a00d883a 	mov	r6,r20
  8023dc:	b80b883a 	mov	r5,r23
  8023e0:	0802fcc0 	call	802fcc <initCmd>
  8023e4:	1021883a 	mov	r16,r2
  8023e8:	003fe506 	br	802380 <decodeCmd+0x180>
	char** paras = (char**)malloc(sizeof(char*)*num_parameters);
	int i, j, k;
	for(i = 0; i < size; i++) {
		length += p[i]->data_size;
	}
	char* dataBuf = (char*)malloc(sizeof(char)*length);
  8023ec:	0009883a 	mov	r4,zero
  8023f0:	08216fc0 	call	8216fc <malloc>
  8023f4:	1039883a 	mov	fp,r2
  8023f8:	003fb706 	br	8022d8 <decodeCmd+0xd8>

008023fc <encodeCmd>:
}

/*
 * encode a command to packets and push to the queue
 */
void encodeCmd(struct Command* cmd, struct Queue* q) {
  8023fc:	defff704 	addi	sp,sp,-36
  802400:	dd800715 	stw	r22,28(sp)
  802404:	dc400215 	stw	r17,8(sp)
  802408:	dfc00815 	stw	ra,32(sp)
  80240c:	dd400615 	stw	r21,24(sp)
  802410:	dd000515 	stw	r20,20(sp)
  802414:	dcc00415 	stw	r19,16(sp)
  802418:	dc800315 	stw	r18,12(sp)
  80241c:	dc000115 	stw	r16,4(sp)
  802420:	2023883a 	mov	r17,r4
  802424:	282d883a 	mov	r22,r5
	if(cmd == NULL || q == NULL) return;
  802428:	20006f26 	beq	r4,zero,8025e8 <encodeCmd+0x1ec>
  80242c:	28006e26 	beq	r5,zero,8025e8 <encodeCmd+0x1ec>
	int data_size = 2; //1 byte for cmd index and the other for number of parameters
	data_size += cmd->num_of_parameters; //each parameter need a byte for its length
  802430:	21400117 	ldw	r5,4(r4)
  802434:	2cc00084 	addi	r19,r5,2
	int i, j, k;
	for(i = 0; i < cmd->num_of_parameters; i++) {
  802438:	0140070e 	bge	zero,r5,802458 <encodeCmd+0x5c>
  80243c:	20c00217 	ldw	r3,8(r4)
  802440:	0009883a 	mov	r4,zero
		data_size += cmd->parameters_size[i];
  802444:	18800017 	ldw	r2,0(r3)
void encodeCmd(struct Command* cmd, struct Queue* q) {
	if(cmd == NULL || q == NULL) return;
	int data_size = 2; //1 byte for cmd index and the other for number of parameters
	data_size += cmd->num_of_parameters; //each parameter need a byte for its length
	int i, j, k;
	for(i = 0; i < cmd->num_of_parameters; i++) {
  802448:	21000044 	addi	r4,r4,1
  80244c:	18c00104 	addi	r3,r3,4
		data_size += cmd->parameters_size[i];
  802450:	98a7883a 	add	r19,r19,r2
void encodeCmd(struct Command* cmd, struct Queue* q) {
	if(cmd == NULL || q == NULL) return;
	int data_size = 2; //1 byte for cmd index and the other for number of parameters
	data_size += cmd->num_of_parameters; //each parameter need a byte for its length
	int i, j, k;
	for(i = 0; i < cmd->num_of_parameters; i++) {
  802454:	293ffb1e 	bne	r5,r4,802444 <encodeCmd+0x48>
		data_size += cmd->parameters_size[i];
	}
	char* dataBuf = (char*)malloc(sizeof(char)*data_size);
  802458:	9809883a 	mov	r4,r19
  80245c:	08216fc0 	call	8216fc <malloc>
  802460:	1025883a 	mov	r18,r2
	struct Packet* result = NULL;
	int packets_size = data_size/100;
  802464:	9c001914 	ori	r16,r19,100
  802468:	008003c4 	movi	r2,15
  80246c:	14006836 	bltu	r2,r16,802610 <encodeCmd+0x214>
  802470:	9804913a 	slli	r2,r19,4
  802474:	00c02134 	movhi	r3,132
  802478:	18fbb104 	addi	r3,r3,-4412
  80247c:	10801914 	ori	r2,r2,100
  802480:	10c5883a 	add	r2,r2,r3
  802484:	15000003 	ldbu	r20,0(r2)
	if(data_size %100 > 0)
  802488:	008003c4 	movi	r2,15
  80248c:	14006636 	bltu	r2,r16,802628 <encodeCmd+0x22c>
  802490:	9804913a 	slli	r2,r19,4
  802494:	00c02134 	movhi	r3,132
  802498:	18fbb104 	addi	r3,r3,-4412
  80249c:	10801914 	ori	r2,r2,100
  8024a0:	10c5883a 	add	r2,r2,r3
  8024a4:	10800003 	ldbu	r2,0(r2)
  8024a8:	10801924 	muli	r2,r2,100
  8024ac:	9885c83a 	sub	r2,r19,r2
  8024b0:	0080010e 	bge	zero,r2,8024b8 <encodeCmd+0xbc>
		packets_size+=1;
  8024b4:	a5000044 	addi	r20,r20,1

	addPacketsLengthToQueue(packets_size);
  8024b8:	a009883a 	mov	r4,r20
	data_size += cmd->num_of_parameters; //each parameter need a byte for its length
	int i, j, k;
	for(i = 0; i < cmd->num_of_parameters; i++) {
		data_size += cmd->parameters_size[i];
	}
	char* dataBuf = (char*)malloc(sizeof(char)*data_size);
  8024bc:	dc800015 	stw	r18,0(sp)
	struct Packet* result = NULL;
	int packets_size = data_size/100;
	if(data_size %100 > 0)
		packets_size+=1;

	addPacketsLengthToQueue(packets_size);
  8024c0:	080b9780 	call	80b978 <addPacketsLengthToQueue>

	dataBuf[0] = (unsigned char)cmd->cmd_index;
  8024c4:	d8800017 	ldw	r2,0(sp)
  8024c8:	88c00017 	ldw	r3,0(r17)
  8024cc:	10c00005 	stb	r3,0(r2)
	dataBuf[1] = (unsigned char)cmd->num_of_parameters;
  8024d0:	89000117 	ldw	r4,4(r17)
  8024d4:	11000045 	stb	r4,1(r2)
	j = 2;
	for(i = 0; i< cmd->num_of_parameters; i++) {
  8024d8:	0100210e 	bge	zero,r4,802560 <encodeCmd+0x164>
  8024dc:	89000217 	ldw	r4,8(r17)
  8024e0:	0011883a 	mov	r8,zero
  8024e4:	01800084 	movi	r6,2
  8024e8:	000f883a 	mov	r7,zero
		dataBuf[j++] = (char)cmd->parameters_size[i];
  8024ec:	21c7883a 	add	r3,r4,r7
  8024f0:	d8800017 	ldw	r2,0(sp)
  8024f4:	19000017 	ldw	r4,0(r3)
  8024f8:	3085883a 	add	r2,r6,r2
  8024fc:	11000005 	stb	r4,0(r2)
		for(k = 0; k < cmd->parameters_size[i]; k++) {
  802500:	89000217 	ldw	r4,8(r17)

	dataBuf[0] = (unsigned char)cmd->cmd_index;
	dataBuf[1] = (unsigned char)cmd->num_of_parameters;
	j = 2;
	for(i = 0; i< cmd->num_of_parameters; i++) {
		dataBuf[j++] = (char)cmd->parameters_size[i];
  802504:	31800044 	addi	r6,r6,1
		for(k = 0; k < cmd->parameters_size[i]; k++) {
  802508:	3905883a 	add	r2,r7,r4
  80250c:	10c00017 	ldw	r3,0(r2)
  802510:	00c00f0e 	bge	zero,r3,802550 <encodeCmd+0x154>
  802514:	000b883a 	mov	r5,zero
			dataBuf[j++] = (char)cmd->parameters[i][k];
  802518:	88800317 	ldw	r2,12(r17)
  80251c:	d9000017 	ldw	r4,0(sp)
  802520:	11c5883a 	add	r2,r2,r7
  802524:	10c00017 	ldw	r3,0(r2)
  802528:	2189883a 	add	r4,r4,r6
  80252c:	31800044 	addi	r6,r6,1
  802530:	28c7883a 	add	r3,r5,r3
  802534:	18800003 	ldbu	r2,0(r3)
	dataBuf[0] = (unsigned char)cmd->cmd_index;
	dataBuf[1] = (unsigned char)cmd->num_of_parameters;
	j = 2;
	for(i = 0; i< cmd->num_of_parameters; i++) {
		dataBuf[j++] = (char)cmd->parameters_size[i];
		for(k = 0; k < cmd->parameters_size[i]; k++) {
  802538:	29400044 	addi	r5,r5,1
			dataBuf[j++] = (char)cmd->parameters[i][k];
  80253c:	20800005 	stb	r2,0(r4)
	dataBuf[0] = (unsigned char)cmd->cmd_index;
	dataBuf[1] = (unsigned char)cmd->num_of_parameters;
	j = 2;
	for(i = 0; i< cmd->num_of_parameters; i++) {
		dataBuf[j++] = (char)cmd->parameters_size[i];
		for(k = 0; k < cmd->parameters_size[i]; k++) {
  802540:	89000217 	ldw	r4,8(r17)
  802544:	21c5883a 	add	r2,r4,r7
  802548:	10c00017 	ldw	r3,0(r2)
  80254c:	28fff216 	blt	r5,r3,802518 <encodeCmd+0x11c>
	addPacketsLengthToQueue(packets_size);

	dataBuf[0] = (unsigned char)cmd->cmd_index;
	dataBuf[1] = (unsigned char)cmd->num_of_parameters;
	j = 2;
	for(i = 0; i< cmd->num_of_parameters; i++) {
  802550:	88800117 	ldw	r2,4(r17)
  802554:	42000044 	addi	r8,r8,1
  802558:	39c00104 	addi	r7,r7,4
  80255c:	40bfe316 	blt	r8,r2,8024ec <encodeCmd+0xf0>
		dataBuf[j++] = (char)cmd->parameters_size[i];
		for(k = 0; k < cmd->parameters_size[i]; k++) {
			dataBuf[j++] = (char)cmd->parameters[i][k];
		}
	}
	for(i = 0; i < packets_size; i++) {
  802560:	05001f0e 	bge	zero,r20,8025e0 <encodeCmd+0x1e4>
  802564:	a57fffc4 	addi	r21,r20,-1
  802568:	0025883a 	mov	r18,zero
		if(i == packets_size-1) {
			result = initPacket(data_size, (unsigned char*)dataBuf);
  80256c:	9809883a 	mov	r4,r19
			setHeader(result, 0, 1, CMD); //last packet
		} else {
			char* temp = strnsep_(&dataBuf, 100);
  802570:	01401904 	movi	r5,100
		for(k = 0; k < cmd->parameters_size[i]; k++) {
			dataBuf[j++] = (char)cmd->parameters[i][k];
		}
	}
	for(i = 0; i < packets_size; i++) {
		if(i == packets_size-1) {
  802574:	ac803026 	beq	r21,r18,802638 <encodeCmd+0x23c>
			result = initPacket(data_size, (unsigned char*)dataBuf);
			setHeader(result, 0, 1, CMD); //last packet
		} else {
			char* temp = strnsep_(&dataBuf, 100);
  802578:	d809883a 	mov	r4,sp
  80257c:	080af980 	call	80af98 <strnsep_>
			result = initPacket(100, (unsigned char*)dataBuf);
  802580:	d9400017 	ldw	r5,0(sp)
	for(i = 0; i < packets_size; i++) {
		if(i == packets_size-1) {
			result = initPacket(data_size, (unsigned char*)dataBuf);
			setHeader(result, 0, 1, CMD); //last packet
		} else {
			char* temp = strnsep_(&dataBuf, 100);
  802584:	1023883a 	mov	r17,r2
			result = initPacket(100, (unsigned char*)dataBuf);
  802588:	01001904 	movi	r4,100
  80258c:	080af000 	call	80af00 <initPacket>
			free(temp);
  802590:	8809883a 	mov	r4,r17
			temp = NULL;
			data_size -= 100;
  802594:	9cffe704 	addi	r19,r19,-100
		if(i == packets_size-1) {
			result = initPacket(data_size, (unsigned char*)dataBuf);
			setHeader(result, 0, 1, CMD); //last packet
		} else {
			char* temp = strnsep_(&dataBuf, 100);
			result = initPacket(100, (unsigned char*)dataBuf);
  802598:	1021883a 	mov	r16,r2
			free(temp);
  80259c:	08216e80 	call	8216e8 <free>
			temp = NULL;
			data_size -= 100;
		}
		if(i == 0)
			setHeader(result, 1, 0, CMD); //first packet
  8025a0:	01400044 	movi	r5,1
  8025a4:	8009883a 	mov	r4,r16
  8025a8:	000d883a 	mov	r6,zero
  8025ac:	280f883a 	mov	r7,r5
			result = initPacket(100, (unsigned char*)dataBuf);
			free(temp);
			temp = NULL;
			data_size -= 100;
		}
		if(i == 0)
  8025b0:	90000526 	beq	r18,zero,8025c8 <encodeCmd+0x1cc>
			setHeader(result, 1, 0, CMD); //first packet
		else if(i != packets_size - 1)
			setHeader(result, 0, 0, CMD);
  8025b4:	8009883a 	mov	r4,r16
  8025b8:	000b883a 	mov	r5,zero
  8025bc:	000d883a 	mov	r6,zero
  8025c0:	01c00044 	movi	r7,1
			temp = NULL;
			data_size -= 100;
		}
		if(i == 0)
			setHeader(result, 1, 0, CMD); //first packet
		else if(i != packets_size - 1)
  8025c4:	ac800126 	beq	r21,r18,8025cc <encodeCmd+0x1d0>
			setHeader(result, 0, 0, CMD);
  8025c8:	080b2540 	call	80b254 <setHeader>
		dataBuf[j++] = (char)cmd->parameters_size[i];
		for(k = 0; k < cmd->parameters_size[i]; k++) {
			dataBuf[j++] = (char)cmd->parameters[i][k];
		}
	}
	for(i = 0; i < packets_size; i++) {
  8025cc:	94800044 	addi	r18,r18,1
		}
		if(i == 0)
			setHeader(result, 1, 0, CMD); //first packet
		else if(i != packets_size - 1)
			setHeader(result, 0, 0, CMD);
		enqueue(q, (void*)result);
  8025d0:	800b883a 	mov	r5,r16
  8025d4:	b009883a 	mov	r4,r22
  8025d8:	080b6940 	call	80b694 <enqueue>
		dataBuf[j++] = (char)cmd->parameters_size[i];
		for(k = 0; k < cmd->parameters_size[i]; k++) {
			dataBuf[j++] = (char)cmd->parameters[i][k];
		}
	}
	for(i = 0; i < packets_size; i++) {
  8025dc:	a4bfe31e 	bne	r20,r18,80256c <encodeCmd+0x170>
		else if(i != packets_size - 1)
			setHeader(result, 0, 0, CMD);
		enqueue(q, (void*)result);
	}
	result = NULL;
	free(dataBuf);
  8025e0:	d9000017 	ldw	r4,0(sp)
  8025e4:	08216e80 	call	8216e8 <free>
	dataBuf = NULL;
}
  8025e8:	dfc00817 	ldw	ra,32(sp)
  8025ec:	dd800717 	ldw	r22,28(sp)
  8025f0:	dd400617 	ldw	r21,24(sp)
  8025f4:	dd000517 	ldw	r20,20(sp)
  8025f8:	dcc00417 	ldw	r19,16(sp)
  8025fc:	dc800317 	ldw	r18,12(sp)
  802600:	dc400217 	ldw	r17,8(sp)
  802604:	dc000117 	ldw	r16,4(sp)
  802608:	dec00904 	addi	sp,sp,36
  80260c:	f800283a 	ret
	for(i = 0; i < cmd->num_of_parameters; i++) {
		data_size += cmd->parameters_size[i];
	}
	char* dataBuf = (char*)malloc(sizeof(char)*data_size);
	struct Packet* result = NULL;
	int packets_size = data_size/100;
  802610:	9809883a 	mov	r4,r19
  802614:	01401904 	movi	r5,100
  802618:	0820b480 	call	820b48 <__divsi3>
  80261c:	1029883a 	mov	r20,r2
	if(data_size %100 > 0)
  802620:	008003c4 	movi	r2,15
  802624:	143f9a2e 	bgeu	r2,r16,802490 <encodeCmd+0x94>
  802628:	9809883a 	mov	r4,r19
  80262c:	01401904 	movi	r5,100
  802630:	0820b480 	call	820b48 <__divsi3>
  802634:	003f9c06 	br	8024a8 <encodeCmd+0xac>
			dataBuf[j++] = (char)cmd->parameters[i][k];
		}
	}
	for(i = 0; i < packets_size; i++) {
		if(i == packets_size-1) {
			result = initPacket(data_size, (unsigned char*)dataBuf);
  802638:	d9400017 	ldw	r5,0(sp)
  80263c:	080af000 	call	80af00 <initPacket>
			setHeader(result, 0, 1, CMD); //last packet
  802640:	01800044 	movi	r6,1
  802644:	1009883a 	mov	r4,r2
  802648:	000b883a 	mov	r5,zero
  80264c:	300f883a 	mov	r7,r6
			dataBuf[j++] = (char)cmd->parameters[i][k];
		}
	}
	for(i = 0; i < packets_size; i++) {
		if(i == packets_size-1) {
			result = initPacket(data_size, (unsigned char*)dataBuf);
  802650:	1021883a 	mov	r16,r2
			setHeader(result, 0, 1, CMD); //last packet
  802654:	080b2540 	call	80b254 <setHeader>
  802658:	003fd106 	br	8025a0 <encodeCmd+0x1a4>

0080265c <encodeString>:

/*
 * encode the string into multiply packets and put into queue
 *
 */
void encodeString(char* str, struct Queue* q) {
  80265c:	defff704 	addi	sp,sp,-36
  802660:	dd800715 	stw	r22,28(sp)
  802664:	dc000115 	stw	r16,4(sp)
  802668:	dfc00815 	stw	ra,32(sp)
  80266c:	dd400615 	stw	r21,24(sp)
  802670:	dd000515 	stw	r20,20(sp)
  802674:	dcc00415 	stw	r19,16(sp)
  802678:	dc800315 	stw	r18,12(sp)
  80267c:	dc400215 	stw	r17,8(sp)
  802680:	2021883a 	mov	r16,r4
  802684:	282d883a 	mov	r22,r5
	if(str == NULL || q == NULL) return;
  802688:	20004326 	beq	r4,zero,802798 <encodeString+0x13c>
  80268c:	28004226 	beq	r5,zero,802798 <encodeString+0x13c>
	int i;
	int length = strlen(str);
  802690:	0822e100 	call	822e10 <strlen>
	char* strBuf = (char*)malloc(sizeof(char)*length);
  802694:	1009883a 	mov	r4,r2
 *
 */
void encodeString(char* str, struct Queue* q) {
	if(str == NULL || q == NULL) return;
	int i;
	int length = strlen(str);
  802698:	1027883a 	mov	r19,r2
	char* strBuf = (char*)malloc(sizeof(char)*length);
  80269c:	08216fc0 	call	8216fc <malloc>
	strncpy(strBuf, str, length);
  8026a0:	800b883a 	mov	r5,r16
  8026a4:	1009883a 	mov	r4,r2
  8026a8:	980d883a 	mov	r6,r19
 */
void encodeString(char* str, struct Queue* q) {
	if(str == NULL || q == NULL) return;
	int i;
	int length = strlen(str);
	char* strBuf = (char*)malloc(sizeof(char)*length);
  8026ac:	d8800015 	stw	r2,0(sp)
	strncpy(strBuf, str, length);
  8026b0:	0822f340 	call	822f34 <strncpy>
	int packet_size = length / 100;
  8026b4:	9c001914 	ori	r16,r19,100
  8026b8:	008003c4 	movi	r2,15
  8026bc:	14004036 	bltu	r2,r16,8027c0 <encodeString+0x164>
  8026c0:	9804913a 	slli	r2,r19,4
  8026c4:	00c02134 	movhi	r3,132
  8026c8:	18fbb104 	addi	r3,r3,-4412
  8026cc:	10801914 	ori	r2,r2,100
  8026d0:	10c5883a 	add	r2,r2,r3
  8026d4:	15000003 	ldbu	r20,0(r2)
	if(length % 100 >0) {
  8026d8:	008003c4 	movi	r2,15
  8026dc:	14003e36 	bltu	r2,r16,8027d8 <encodeString+0x17c>
  8026e0:	9804913a 	slli	r2,r19,4
  8026e4:	00c02134 	movhi	r3,132
  8026e8:	18fbb104 	addi	r3,r3,-4412
  8026ec:	10801914 	ori	r2,r2,100
  8026f0:	10c5883a 	add	r2,r2,r3
  8026f4:	10800003 	ldbu	r2,0(r2)
  8026f8:	10801924 	muli	r2,r2,100
  8026fc:	9885c83a 	sub	r2,r19,r2
  802700:	0080010e 	bge	zero,r2,802708 <encodeString+0xac>
		packet_size+=1;
  802704:	a5000044 	addi	r20,r20,1
	}

	addPacketsLengthToQueue(packet_size);
  802708:	a009883a 	mov	r4,r20
  80270c:	080b9780 	call	80b978 <addPacketsLengthToQueue>

	struct Packet* result;
	for(i = 0; i < packet_size; i++) {
  802710:	05001f0e 	bge	zero,r20,802790 <encodeString+0x134>
  802714:	a57fffc4 	addi	r21,r20,-1
  802718:	0025883a 	mov	r18,zero
		if(i == packet_size - 1) {
			result = initPacket(length, (unsigned char*)strBuf);
  80271c:	9809883a 	mov	r4,r19
			setHeader(result, 0, 1, STRING); //last packet
		}
		else {
			char* temp = strnsep_(&strBuf, 100);
  802720:	01401904 	movi	r5,100

	addPacketsLengthToQueue(packet_size);

	struct Packet* result;
	for(i = 0; i < packet_size; i++) {
		if(i == packet_size - 1) {
  802724:	ac803026 	beq	r21,r18,8027e8 <encodeString+0x18c>
			result = initPacket(length, (unsigned char*)strBuf);
			setHeader(result, 0, 1, STRING); //last packet
		}
		else {
			char* temp = strnsep_(&strBuf, 100);
  802728:	d809883a 	mov	r4,sp
  80272c:	080af980 	call	80af98 <strnsep_>
  802730:	1023883a 	mov	r17,r2
			result = initPacket(100, (unsigned char*)temp);
  802734:	100b883a 	mov	r5,r2
  802738:	01001904 	movi	r4,100
  80273c:	080af000 	call	80af00 <initPacket>
			free(temp);
  802740:	8809883a 	mov	r4,r17
			result = initPacket(length, (unsigned char*)strBuf);
			setHeader(result, 0, 1, STRING); //last packet
		}
		else {
			char* temp = strnsep_(&strBuf, 100);
			result = initPacket(100, (unsigned char*)temp);
  802744:	1021883a 	mov	r16,r2
			free(temp);
			temp = NULL;
			length -= 100;
  802748:	9cffe704 	addi	r19,r19,-100
			setHeader(result, 0, 1, STRING); //last packet
		}
		else {
			char* temp = strnsep_(&strBuf, 100);
			result = initPacket(100, (unsigned char*)temp);
			free(temp);
  80274c:	08216e80 	call	8216e8 <free>
			temp = NULL;
			length -= 100;
		}
		if(i == 0)
			setHeader(result, 1, 0, STRING); //first packet
  802750:	8009883a 	mov	r4,r16
  802754:	01400044 	movi	r5,1
  802758:	000d883a 	mov	r6,zero
  80275c:	000f883a 	mov	r7,zero
			result = initPacket(100, (unsigned char*)temp);
			free(temp);
			temp = NULL;
			length -= 100;
		}
		if(i == 0)
  802760:	90000526 	beq	r18,zero,802778 <encodeString+0x11c>
			setHeader(result, 1, 0, STRING); //first packet
		else if(i != packet_size - 1)
			setHeader(result, 0, 0, STRING);
  802764:	8009883a 	mov	r4,r16
  802768:	000b883a 	mov	r5,zero
  80276c:	000d883a 	mov	r6,zero
  802770:	000f883a 	mov	r7,zero
			temp = NULL;
			length -= 100;
		}
		if(i == 0)
			setHeader(result, 1, 0, STRING); //first packet
		else if(i != packet_size - 1)
  802774:	ac800126 	beq	r21,r18,80277c <encodeString+0x120>
			setHeader(result, 0, 0, STRING);
  802778:	080b2540 	call	80b254 <setHeader>
	}

	addPacketsLengthToQueue(packet_size);

	struct Packet* result;
	for(i = 0; i < packet_size; i++) {
  80277c:	94800044 	addi	r18,r18,1
		}
		if(i == 0)
			setHeader(result, 1, 0, STRING); //first packet
		else if(i != packet_size - 1)
			setHeader(result, 0, 0, STRING);
		enqueue(q, (void*)result);
  802780:	800b883a 	mov	r5,r16
  802784:	b009883a 	mov	r4,r22
  802788:	080b6940 	call	80b694 <enqueue>
	}

	addPacketsLengthToQueue(packet_size);

	struct Packet* result;
	for(i = 0; i < packet_size; i++) {
  80278c:	a4bfe31e 	bne	r20,r18,80271c <encodeString+0xc0>
		else if(i != packet_size - 1)
			setHeader(result, 0, 0, STRING);
		enqueue(q, (void*)result);
	}
	result = NULL;
	free(strBuf);
  802790:	d9000017 	ldw	r4,0(sp)
  802794:	08216e80 	call	8216e8 <free>
	strBuf = NULL;
}
  802798:	dfc00817 	ldw	ra,32(sp)
  80279c:	dd800717 	ldw	r22,28(sp)
  8027a0:	dd400617 	ldw	r21,24(sp)
  8027a4:	dd000517 	ldw	r20,20(sp)
  8027a8:	dcc00417 	ldw	r19,16(sp)
  8027ac:	dc800317 	ldw	r18,12(sp)
  8027b0:	dc400217 	ldw	r17,8(sp)
  8027b4:	dc000117 	ldw	r16,4(sp)
  8027b8:	dec00904 	addi	sp,sp,36
  8027bc:	f800283a 	ret
	if(str == NULL || q == NULL) return;
	int i;
	int length = strlen(str);
	char* strBuf = (char*)malloc(sizeof(char)*length);
	strncpy(strBuf, str, length);
	int packet_size = length / 100;
  8027c0:	9809883a 	mov	r4,r19
  8027c4:	01401904 	movi	r5,100
  8027c8:	0820b480 	call	820b48 <__divsi3>
  8027cc:	1029883a 	mov	r20,r2
	if(length % 100 >0) {
  8027d0:	008003c4 	movi	r2,15
  8027d4:	143fc22e 	bgeu	r2,r16,8026e0 <encodeString+0x84>
  8027d8:	9809883a 	mov	r4,r19
  8027dc:	01401904 	movi	r5,100
  8027e0:	0820b480 	call	820b48 <__divsi3>
  8027e4:	003fc406 	br	8026f8 <encodeString+0x9c>
	addPacketsLengthToQueue(packet_size);

	struct Packet* result;
	for(i = 0; i < packet_size; i++) {
		if(i == packet_size - 1) {
			result = initPacket(length, (unsigned char*)strBuf);
  8027e8:	d9400017 	ldw	r5,0(sp)
  8027ec:	080af000 	call	80af00 <initPacket>
			setHeader(result, 0, 1, STRING); //last packet
  8027f0:	1009883a 	mov	r4,r2
  8027f4:	000b883a 	mov	r5,zero
  8027f8:	01800044 	movi	r6,1
  8027fc:	000f883a 	mov	r7,zero
	addPacketsLengthToQueue(packet_size);

	struct Packet* result;
	for(i = 0; i < packet_size; i++) {
		if(i == packet_size - 1) {
			result = initPacket(length, (unsigned char*)strBuf);
  802800:	1021883a 	mov	r16,r2
			setHeader(result, 0, 1, STRING); //last packet
  802804:	080b2540 	call	80b254 <setHeader>
  802808:	003fd106 	br	802750 <encodeString+0xf4>

0080280c <decode>:
	result = NULL;
	free(dataBuf);
	dataBuf = NULL;
}

void decode(struct Queue* this) {
  80280c:	defff704 	addi	sp,sp,-36
  802810:	dc800215 	stw	r18,8(sp)
	int len = this->size;
  802814:	24800017 	ldw	r18,0(r4)
	result = NULL;
	free(dataBuf);
	dataBuf = NULL;
}

void decode(struct Queue* this) {
  802818:	dd400515 	stw	r21,20(sp)
  80281c:	dd000415 	stw	r20,16(sp)
	int len = this->size;
	struct Packet** packets = (struct Packet**)malloc(sizeof(struct Packet*)*len);
  802820:	94ab883a 	add	r21,r18,r18
	result = NULL;
	free(dataBuf);
	dataBuf = NULL;
}

void decode(struct Queue* this) {
  802824:	2029883a 	mov	r20,r4
	int len = this->size;
	struct Packet** packets = (struct Packet**)malloc(sizeof(struct Packet*)*len);
  802828:	ad49883a 	add	r4,r21,r21
	result = NULL;
	free(dataBuf);
	dataBuf = NULL;
}

void decode(struct Queue* this) {
  80282c:	ddc00715 	stw	r23,28(sp)
  802830:	dd800615 	stw	r22,24(sp)
  802834:	dcc00315 	stw	r19,12(sp)
  802838:	dfc00815 	stw	ra,32(sp)
  80283c:	dc400115 	stw	r17,4(sp)
  802840:	dc000015 	stw	r16,0(sp)
	int len = this->size;
	struct Packet** packets = (struct Packet**)malloc(sizeof(struct Packet*)*len);
	void* result = NULL;
	int i = 0;
	for(i = 0; i < len; i++) {
  802844:	95c00050 	cmplti	r23,r18,1
	dataBuf = NULL;
}

void decode(struct Queue* this) {
	int len = this->size;
	struct Packet** packets = (struct Packet**)malloc(sizeof(struct Packet*)*len);
  802848:	08216fc0 	call	8216fc <malloc>
  80284c:	102d883a 	mov	r22,r2
  802850:	1027883a 	mov	r19,r2
	void* result = NULL;
	int i = 0;
	for(i = 0; i < len; i++) {
  802854:	b800081e 	bne	r23,zero,802878 <decode+0x6c>
  802858:	1021883a 	mov	r16,r2
  80285c:	0023883a 	mov	r17,zero
		packets[i] = (struct Packet*)dequeue(this);
  802860:	a009883a 	mov	r4,r20
  802864:	080b7a00 	call	80b7a0 <dequeue>
void decode(struct Queue* this) {
	int len = this->size;
	struct Packet** packets = (struct Packet**)malloc(sizeof(struct Packet*)*len);
	void* result = NULL;
	int i = 0;
	for(i = 0; i < len; i++) {
  802868:	8c400044 	addi	r17,r17,1
		packets[i] = (struct Packet*)dequeue(this);
  80286c:	80800015 	stw	r2,0(r16)
void decode(struct Queue* this) {
	int len = this->size;
	struct Packet** packets = (struct Packet**)malloc(sizeof(struct Packet*)*len);
	void* result = NULL;
	int i = 0;
	for(i = 0; i < len; i++) {
  802870:	84000104 	addi	r16,r16,4
  802874:	947ffa1e 	bne	r18,r17,802860 <decode+0x54>
		packets[i] = (struct Packet*)dequeue(this);
	}

	switch(*(packets[0]->type)) {
  802878:	b0800017 	ldw	r2,0(r22)
  80287c:	10c00217 	ldw	r3,8(r2)
  802880:	18c00017 	ldw	r3,0(r3)
  802884:	18001526 	beq	r3,zero,8028dc <decode+0xd0>
  802888:	00800044 	movi	r2,1
